
SAMBA_BOOTLOADER1.elf:     file format elf32-littlearm

Sections:
Idx Name          Size      VMA       LMA       File off  Algn
  0 .text         000047b4  00000000  00000000  00010000  2**2
                  CONTENTS, ALLOC, LOAD, READONLY, CODE
  1 .relocate     00000114  20000000  000047b4  00020000  2**2
                  CONTENTS, ALLOC, LOAD, DATA
  2 .lpram        00000000  30000000  30000000  00020114  2**0
                  CONTENTS
  3 .bss          00000bc8  20000114  000048c8  00020114  2**2
                  ALLOC
  4 .stack        00000404  20000cdc  00005490  00020114  2**0
                  ALLOC
  5 .ARM.attributes 00000028  00000000  00000000  00020114  2**0
                  CONTENTS, READONLY
  6 .comment      00000059  00000000  00000000  0002013c  2**0
                  CONTENTS, READONLY
  7 .debug_frame  000000e8  00000000  00000000  00020198  2**2
                  CONTENTS, READONLY, DEBUGGING

Disassembly of section .text:

00000000 <exception_table>:
       0:	e0 10 00 20 2d 39 00 00 29 39 00 00 29 39 00 00     ... -9..)9..)9..
	...
      2c:	29 39 00 00 00 00 00 00 00 00 00 00 29 39 00 00     )9..........)9..
      3c:	29 39 00 00 29 39 00 00 29 39 00 00 29 39 00 00     )9..)9..)9..)9..
      4c:	69 0f 00 00 29 39 00 00 29 39 00 00 a9 31 00 00     i...)9..)9...1..
      5c:	29 39 00 00 d5 13 00 00 e5 13 00 00 f5 13 00 00     )9..............
      6c:	05 14 00 00 15 14 00 00 25 14 00 00 29 39 00 00     ........%...)9..
      7c:	29 39 00 00 29 39 00 00 29 39 00 00 29 39 00 00     )9..)9..)9..)9..
      8c:	29 39 00 00 29 39 00 00 29 39 00 00 29 39 00 00     )9..)9..)9..)9..
      9c:	29 39 00 00 29 39 00 00 29 39 00 00 29 39 00 00     )9..)9..)9..)9..
      ac:	29 39 00 00 00 00 00 00                             )9......

000000b4 <__do_global_dtors_aux>:
      b4:	b510      	push	{r4, lr}
      b6:	4c06      	ldr	r4, [pc, #24]	; (d0 <__do_global_dtors_aux+0x1c>)
      b8:	7823      	ldrb	r3, [r4, #0]
      ba:	2b00      	cmp	r3, #0
      bc:	d107      	bne.n	ce <__do_global_dtors_aux+0x1a>
      be:	4b05      	ldr	r3, [pc, #20]	; (d4 <__do_global_dtors_aux+0x20>)
      c0:	2b00      	cmp	r3, #0
      c2:	d002      	beq.n	ca <__do_global_dtors_aux+0x16>
      c4:	4804      	ldr	r0, [pc, #16]	; (d8 <__do_global_dtors_aux+0x24>)
      c6:	e000      	b.n	ca <__do_global_dtors_aux+0x16>
      c8:	bf00      	nop
      ca:	2301      	movs	r3, #1
      cc:	7023      	strb	r3, [r4, #0]
      ce:	bd10      	pop	{r4, pc}
      d0:	20000114 	.word	0x20000114
      d4:	00000000 	.word	0x00000000
      d8:	000047b4 	.word	0x000047b4

000000dc <frame_dummy>:
      dc:	4b08      	ldr	r3, [pc, #32]	; (100 <frame_dummy+0x24>)
      de:	b510      	push	{r4, lr}
      e0:	2b00      	cmp	r3, #0
      e2:	d003      	beq.n	ec <frame_dummy+0x10>
      e4:	4907      	ldr	r1, [pc, #28]	; (104 <frame_dummy+0x28>)
      e6:	4808      	ldr	r0, [pc, #32]	; (108 <frame_dummy+0x2c>)
      e8:	e000      	b.n	ec <frame_dummy+0x10>
      ea:	bf00      	nop
      ec:	4807      	ldr	r0, [pc, #28]	; (10c <frame_dummy+0x30>)
      ee:	6803      	ldr	r3, [r0, #0]
      f0:	2b00      	cmp	r3, #0
      f2:	d100      	bne.n	f6 <frame_dummy+0x1a>
      f4:	bd10      	pop	{r4, pc}
      f6:	4b06      	ldr	r3, [pc, #24]	; (110 <frame_dummy+0x34>)
      f8:	2b00      	cmp	r3, #0
      fa:	d0fb      	beq.n	f4 <frame_dummy+0x18>
      fc:	4798      	blx	r3
      fe:	e7f9      	b.n	f4 <frame_dummy+0x18>
     100:	00000000 	.word	0x00000000
     104:	20000118 	.word	0x20000118
     108:	000047b4 	.word	0x000047b4
     10c:	000047b4 	.word	0x000047b4
     110:	00000000 	.word	0x00000000

00000114 <cpu_irq_save>:
     114:	b082      	sub	sp, #8
     116:	f3ef 8310 	mrs	r3, PRIMASK
     11a:	425a      	negs	r2, r3
     11c:	4153      	adcs	r3, r2
     11e:	9301      	str	r3, [sp, #4]
     120:	b672      	cpsid	i
     122:	f3bf 8f5f 	dmb	sy
     126:	2200      	movs	r2, #0
     128:	4b02      	ldr	r3, [pc, #8]	; (134 <cpu_irq_save+0x20>)
     12a:	701a      	strb	r2, [r3, #0]
     12c:	9801      	ldr	r0, [sp, #4]
     12e:	b002      	add	sp, #8
     130:	4770      	bx	lr
     132:	46c0      	nop			; (mov r8, r8)
     134:	20000110 	.word	0x20000110

00000138 <udi_cdc_comm_disable>:
     138:	4a02      	ldr	r2, [pc, #8]	; (144 <udi_cdc_comm_disable+0xc>)
     13a:	7813      	ldrb	r3, [r2, #0]
     13c:	3b01      	subs	r3, #1
     13e:	b2db      	uxtb	r3, r3
     140:	7013      	strb	r3, [r2, #0]
     142:	4770      	bx	lr
     144:	2000013b 	.word	0x2000013b

00000148 <udi_cdc_data_setup>:
     148:	2000      	movs	r0, #0
     14a:	4770      	bx	lr

0000014c <udi_cdc_getsetting>:
     14c:	2000      	movs	r0, #0
     14e:	4770      	bx	lr

00000150 <udi_cdc_line_coding_received>:
     150:	b510      	push	{r4, lr}
     152:	4902      	ldr	r1, [pc, #8]	; (15c <udi_cdc_line_coding_received+0xc>)
     154:	2000      	movs	r0, #0
     156:	4b02      	ldr	r3, [pc, #8]	; (160 <udi_cdc_line_coding_received+0x10>)
     158:	4798      	blx	r3
     15a:	bd10      	pop	{r4, pc}
     15c:	20000134 	.word	0x20000134
     160:	00003a59 	.word	0x00003a59

00000164 <udi_cdc_data_disable>:
     164:	b510      	push	{r4, lr}
     166:	4a06      	ldr	r2, [pc, #24]	; (180 <udi_cdc_data_disable+0x1c>)
     168:	7813      	ldrb	r3, [r2, #0]
     16a:	3b01      	subs	r3, #1
     16c:	b2db      	uxtb	r3, r3
     16e:	7013      	strb	r3, [r2, #0]
     170:	7810      	ldrb	r0, [r2, #0]
     172:	4b04      	ldr	r3, [pc, #16]	; (184 <udi_cdc_data_disable+0x20>)
     174:	b2c0      	uxtb	r0, r0
     176:	4798      	blx	r3
     178:	2200      	movs	r2, #0
     17a:	4b03      	ldr	r3, [pc, #12]	; (188 <udi_cdc_data_disable+0x24>)
     17c:	701a      	strb	r2, [r3, #0]
     17e:	bd10      	pop	{r4, pc}
     180:	2000013c 	.word	0x2000013c
     184:	00003a49 	.word	0x00003a49
     188:	20000132 	.word	0x20000132

0000018c <cpu_irq_restore>:
     18c:	2800      	cmp	r0, #0
     18e:	d005      	beq.n	19c <cpu_irq_restore+0x10>
     190:	2201      	movs	r2, #1
     192:	4b03      	ldr	r3, [pc, #12]	; (1a0 <cpu_irq_restore+0x14>)
     194:	701a      	strb	r2, [r3, #0]
     196:	f3bf 8f5f 	dmb	sy
     19a:	b662      	cpsie	i
     19c:	4770      	bx	lr
     19e:	46c0      	nop			; (mov r8, r8)
     1a0:	20000110 	.word	0x20000110

000001a4 <udi_cdc_comm_enable>:
     1a4:	b570      	push	{r4, r5, r6, lr}
     1a6:	2400      	movs	r4, #0
     1a8:	22a1      	movs	r2, #161	; 0xa1
     1aa:	4b11      	ldr	r3, [pc, #68]	; (1f0 <udi_cdc_comm_enable+0x4c>)
     1ac:	4d11      	ldr	r5, [pc, #68]	; (1f4 <udi_cdc_comm_enable+0x50>)
     1ae:	4912      	ldr	r1, [pc, #72]	; (1f8 <udi_cdc_comm_enable+0x54>)
     1b0:	702c      	strb	r4, [r5, #0]
     1b2:	801c      	strh	r4, [r3, #0]
     1b4:	4b11      	ldr	r3, [pc, #68]	; (1fc <udi_cdc_comm_enable+0x58>)
     1b6:	0020      	movs	r0, r4
     1b8:	701a      	strb	r2, [r3, #0]
     1ba:	3a81      	subs	r2, #129	; 0x81
     1bc:	705a      	strb	r2, [r3, #1]
     1be:	3a1e      	subs	r2, #30
     1c0:	805c      	strh	r4, [r3, #2]
     1c2:	809c      	strh	r4, [r3, #4]
     1c4:	80da      	strh	r2, [r3, #6]
     1c6:	811c      	strh	r4, [r3, #8]
     1c8:	23e1      	movs	r3, #225	; 0xe1
     1ca:	025b      	lsls	r3, r3, #9
     1cc:	600b      	str	r3, [r1, #0]
     1ce:	2308      	movs	r3, #8
     1d0:	710c      	strb	r4, [r1, #4]
     1d2:	718b      	strb	r3, [r1, #6]
     1d4:	714c      	strb	r4, [r1, #5]
     1d6:	4b0a      	ldr	r3, [pc, #40]	; (200 <udi_cdc_comm_enable+0x5c>)
     1d8:	4798      	blx	r3
     1da:	0020      	movs	r0, r4
     1dc:	4b09      	ldr	r3, [pc, #36]	; (204 <udi_cdc_comm_enable+0x60>)
     1de:	4798      	blx	r3
     1e0:	42a0      	cmp	r0, r4
     1e2:	d003      	beq.n	1ec <udi_cdc_comm_enable+0x48>
     1e4:	782b      	ldrb	r3, [r5, #0]
     1e6:	3301      	adds	r3, #1
     1e8:	b2db      	uxtb	r3, r3
     1ea:	702b      	strb	r3, [r5, #0]
     1ec:	bd70      	pop	{r4, r5, r6, pc}
     1ee:	46c0      	nop			; (mov r8, r8)
     1f0:	200003ca 	.word	0x200003ca
     1f4:	2000013b 	.word	0x2000013b
     1f8:	20000134 	.word	0x20000134
     1fc:	2000065c 	.word	0x2000065c
     200:	00003a59 	.word	0x00003a59
     204:	00003a3d 	.word	0x00003a3d

00000208 <udi_cdc_tx_send.isra.2>:
     208:	b5f7      	push	{r0, r1, r2, r4, r5, r6, r7, lr}
     20a:	4b36      	ldr	r3, [pc, #216]	; (2e4 <udi_cdc_tx_send.isra.2+0xdc>)
     20c:	781b      	ldrb	r3, [r3, #0]
     20e:	2b00      	cmp	r3, #0
     210:	d123      	bne.n	25a <udi_cdc_tx_send.isra.2+0x52>
     212:	4b35      	ldr	r3, [pc, #212]	; (2e8 <udi_cdc_tx_send.isra.2+0xe0>)
     214:	4798      	blx	r3
     216:	4e35      	ldr	r6, [pc, #212]	; (2ec <udi_cdc_tx_send.isra.2+0xe4>)
     218:	4b35      	ldr	r3, [pc, #212]	; (2f0 <udi_cdc_tx_send.isra.2+0xe8>)
     21a:	8834      	ldrh	r4, [r6, #0]
     21c:	2800      	cmp	r0, #0
     21e:	d000      	beq.n	222 <udi_cdc_tx_send.isra.2+0x1a>
     220:	4b34      	ldr	r3, [pc, #208]	; (2f4 <udi_cdc_tx_send.isra.2+0xec>)
     222:	4798      	blx	r3
     224:	4284      	cmp	r4, r0
     226:	d018      	beq.n	25a <udi_cdc_tx_send.isra.2+0x52>
     228:	4b33      	ldr	r3, [pc, #204]	; (2f8 <udi_cdc_tx_send.isra.2+0xf0>)
     22a:	4798      	blx	r3
     22c:	4b33      	ldr	r3, [pc, #204]	; (2fc <udi_cdc_tx_send.isra.2+0xf4>)
     22e:	4a34      	ldr	r2, [pc, #208]	; (300 <udi_cdc_tx_send.isra.2+0xf8>)
     230:	781c      	ldrb	r4, [r3, #0]
     232:	0007      	movs	r7, r0
     234:	b2e4      	uxtb	r4, r4
     236:	0063      	lsls	r3, r4, #1
     238:	5a9b      	ldrh	r3, [r3, r2]
     23a:	2b00      	cmp	r3, #0
     23c:	d116      	bne.n	26c <udi_cdc_tx_send.isra.2+0x64>
     23e:	4d31      	ldr	r5, [pc, #196]	; (304 <udi_cdc_tx_send.isra.2+0xfc>)
     240:	882b      	ldrh	r3, [r5, #0]
     242:	3301      	adds	r3, #1
     244:	802b      	strh	r3, [r5, #0]
     246:	4b28      	ldr	r3, [pc, #160]	; (2e8 <udi_cdc_tx_send.isra.2+0xe0>)
     248:	4798      	blx	r3
     24a:	2800      	cmp	r0, #0
     24c:	d106      	bne.n	25c <udi_cdc_tx_send.isra.2+0x54>
     24e:	882b      	ldrh	r3, [r5, #0]
     250:	2b63      	cmp	r3, #99	; 0x63
     252:	d803      	bhi.n	25c <udi_cdc_tx_send.isra.2+0x54>
     254:	0038      	movs	r0, r7
     256:	4b2c      	ldr	r3, [pc, #176]	; (308 <udi_cdc_tx_send.isra.2+0x100>)
     258:	4798      	blx	r3
     25a:	bdf7      	pop	{r0, r1, r2, r4, r5, r6, r7, pc}
     25c:	4b22      	ldr	r3, [pc, #136]	; (2e8 <udi_cdc_tx_send.isra.2+0xe0>)
     25e:	4798      	blx	r3
     260:	2800      	cmp	r0, #0
     262:	d003      	beq.n	26c <udi_cdc_tx_send.isra.2+0x64>
     264:	4b29      	ldr	r3, [pc, #164]	; (30c <udi_cdc_tx_send.isra.2+0x104>)
     266:	882a      	ldrh	r2, [r5, #0]
     268:	429a      	cmp	r2, r3
     26a:	d9f3      	bls.n	254 <udi_cdc_tx_send.isra.2+0x4c>
     26c:	2200      	movs	r2, #0
     26e:	4b25      	ldr	r3, [pc, #148]	; (304 <udi_cdc_tx_send.isra.2+0xfc>)
     270:	801a      	strh	r2, [r3, #0]
     272:	4b27      	ldr	r3, [pc, #156]	; (310 <udi_cdc_tx_send.isra.2+0x108>)
     274:	781b      	ldrb	r3, [r3, #0]
     276:	4293      	cmp	r3, r2
     278:	d12d      	bne.n	2d6 <udi_cdc_tx_send.isra.2+0xce>
     27a:	4263      	negs	r3, r4
     27c:	4163      	adcs	r3, r4
     27e:	4a1f      	ldr	r2, [pc, #124]	; (2fc <udi_cdc_tx_send.isra.2+0xf4>)
     280:	b2db      	uxtb	r3, r3
     282:	7013      	strb	r3, [r2, #0]
     284:	2301      	movs	r3, #1
     286:	4a17      	ldr	r2, [pc, #92]	; (2e4 <udi_cdc_tx_send.isra.2+0xdc>)
     288:	0038      	movs	r0, r7
     28a:	7013      	strb	r3, [r2, #0]
     28c:	4b1e      	ldr	r3, [pc, #120]	; (308 <udi_cdc_tx_send.isra.2+0x100>)
     28e:	4798      	blx	r3
     290:	4b1b      	ldr	r3, [pc, #108]	; (300 <udi_cdc_tx_send.isra.2+0xf8>)
     292:	0067      	lsls	r7, r4, #1
     294:	5bdb      	ldrh	r3, [r3, r7]
     296:	001d      	movs	r5, r3
     298:	3d41      	subs	r5, #65	; 0x41
     29a:	3dff      	subs	r5, #255	; 0xff
     29c:	1e6a      	subs	r2, r5, #1
     29e:	4195      	sbcs	r5, r2
     2a0:	22a0      	movs	r2, #160	; 0xa0
     2a2:	b2ed      	uxtb	r5, r5
     2a4:	0052      	lsls	r2, r2, #1
     2a6:	4293      	cmp	r3, r2
     2a8:	d019      	beq.n	2de <udi_cdc_tx_send.isra.2+0xd6>
     2aa:	4b0f      	ldr	r3, [pc, #60]	; (2e8 <udi_cdc_tx_send.isra.2+0xe0>)
     2ac:	4798      	blx	r3
     2ae:	4b11      	ldr	r3, [pc, #68]	; (2f4 <udi_cdc_tx_send.isra.2+0xec>)
     2b0:	2800      	cmp	r0, #0
     2b2:	d100      	bne.n	2b6 <udi_cdc_tx_send.isra.2+0xae>
     2b4:	4b0e      	ldr	r3, [pc, #56]	; (2f0 <udi_cdc_tx_send.isra.2+0xe8>)
     2b6:	4798      	blx	r3
     2b8:	8030      	strh	r0, [r6, #0]
     2ba:	22a0      	movs	r2, #160	; 0xa0
     2bc:	0052      	lsls	r2, r2, #1
     2be:	4354      	muls	r4, r2
     2c0:	4914      	ldr	r1, [pc, #80]	; (314 <udi_cdc_tx_send.isra.2+0x10c>)
     2c2:	4b0f      	ldr	r3, [pc, #60]	; (300 <udi_cdc_tx_send.isra.2+0xf8>)
     2c4:	4a14      	ldr	r2, [pc, #80]	; (318 <udi_cdc_tx_send.isra.2+0x110>)
     2c6:	5bdb      	ldrh	r3, [r3, r7]
     2c8:	1912      	adds	r2, r2, r4
     2ca:	9100      	str	r1, [sp, #0]
     2cc:	4c13      	ldr	r4, [pc, #76]	; (31c <udi_cdc_tx_send.isra.2+0x114>)
     2ce:	0029      	movs	r1, r5
     2d0:	2081      	movs	r0, #129	; 0x81
     2d2:	47a0      	blx	r4
     2d4:	e7c1      	b.n	25a <udi_cdc_tx_send.isra.2+0x52>
     2d6:	4262      	negs	r2, r4
     2d8:	4154      	adcs	r4, r2
     2da:	b2e4      	uxtb	r4, r4
     2dc:	e7d2      	b.n	284 <udi_cdc_tx_send.isra.2+0x7c>
     2de:	2300      	movs	r3, #0
     2e0:	8033      	strh	r3, [r6, #0]
     2e2:	e7ea      	b.n	2ba <udi_cdc_tx_send.isra.2+0xb2>
     2e4:	20000658 	.word	0x20000658
     2e8:	00002785 	.word	0x00002785
     2ec:	20000656 	.word	0x20000656
     2f0:	00002789 	.word	0x00002789
     2f4:	00002799 	.word	0x00002799
     2f8:	00000115 	.word	0x00000115
     2fc:	20000654 	.word	0x20000654
     300:	20000650 	.word	0x20000650
     304:	20000130 	.word	0x20000130
     308:	0000018d 	.word	0x0000018d
     30c:	0000031f 	.word	0x0000031f
     310:	200003cc 	.word	0x200003cc
     314:	0000032d 	.word	0x0000032d
     318:	200003d0 	.word	0x200003d0
     31c:	00002a19 	.word	0x00002a19

00000320 <udi_cdc_data_sof_notify>:
     320:	b510      	push	{r4, lr}
     322:	4b01      	ldr	r3, [pc, #4]	; (328 <udi_cdc_data_sof_notify+0x8>)
     324:	4798      	blx	r3
     326:	bd10      	pop	{r4, pc}
     328:	00000209 	.word	0x00000209

0000032c <udi_cdc_data_sent>:
     32c:	b510      	push	{r4, lr}
     32e:	2800      	cmp	r0, #0
     330:	d10c      	bne.n	34c <udi_cdc_data_sent+0x20>
     332:	4b07      	ldr	r3, [pc, #28]	; (350 <udi_cdc_data_sent+0x24>)
     334:	781b      	ldrb	r3, [r3, #0]
     336:	425a      	negs	r2, r3
     338:	4153      	adcs	r3, r2
     33a:	4a06      	ldr	r2, [pc, #24]	; (354 <udi_cdc_data_sent+0x28>)
     33c:	005b      	lsls	r3, r3, #1
     33e:	5298      	strh	r0, [r3, r2]
     340:	4b05      	ldr	r3, [pc, #20]	; (358 <udi_cdc_data_sent+0x2c>)
     342:	7018      	strb	r0, [r3, #0]
     344:	4b05      	ldr	r3, [pc, #20]	; (35c <udi_cdc_data_sent+0x30>)
     346:	7018      	strb	r0, [r3, #0]
     348:	4b05      	ldr	r3, [pc, #20]	; (360 <udi_cdc_data_sent+0x34>)
     34a:	4798      	blx	r3
     34c:	bd10      	pop	{r4, pc}
     34e:	46c0      	nop			; (mov r8, r8)
     350:	20000654 	.word	0x20000654
     354:	20000650 	.word	0x20000650
     358:	200003cc 	.word	0x200003cc
     35c:	20000658 	.word	0x20000658
     360:	00000209 	.word	0x00000209

00000364 <udi_cdc_comm_setup>:
     364:	2160      	movs	r1, #96	; 0x60
     366:	b510      	push	{r4, lr}
     368:	4b14      	ldr	r3, [pc, #80]	; (3bc <udi_cdc_comm_setup+0x58>)
     36a:	781a      	ldrb	r2, [r3, #0]
     36c:	b250      	sxtb	r0, r2
     36e:	400a      	ands	r2, r1
     370:	2800      	cmp	r0, #0
     372:	da0d      	bge.n	390 <udi_cdc_comm_setup+0x2c>
     374:	2000      	movs	r0, #0
     376:	2a20      	cmp	r2, #32
     378:	d112      	bne.n	3a0 <udi_cdc_comm_setup+0x3c>
     37a:	785a      	ldrb	r2, [r3, #1]
     37c:	2a21      	cmp	r2, #33	; 0x21
     37e:	d10f      	bne.n	3a0 <udi_cdc_comm_setup+0x3c>
     380:	88da      	ldrh	r2, [r3, #6]
     382:	2a07      	cmp	r2, #7
     384:	d10c      	bne.n	3a0 <udi_cdc_comm_setup+0x3c>
     386:	490e      	ldr	r1, [pc, #56]	; (3c0 <udi_cdc_comm_setup+0x5c>)
     388:	819a      	strh	r2, [r3, #12]
     38a:	6099      	str	r1, [r3, #8]
     38c:	2001      	movs	r0, #1
     38e:	e007      	b.n	3a0 <udi_cdc_comm_setup+0x3c>
     390:	2000      	movs	r0, #0
     392:	2a20      	cmp	r2, #32
     394:	d104      	bne.n	3a0 <udi_cdc_comm_setup+0x3c>
     396:	785a      	ldrb	r2, [r3, #1]
     398:	2a20      	cmp	r2, #32
     39a:	d002      	beq.n	3a2 <udi_cdc_comm_setup+0x3e>
     39c:	2a22      	cmp	r2, #34	; 0x22
     39e:	d006      	beq.n	3ae <udi_cdc_comm_setup+0x4a>
     3a0:	bd10      	pop	{r4, pc}
     3a2:	88da      	ldrh	r2, [r3, #6]
     3a4:	2a07      	cmp	r2, #7
     3a6:	d1fb      	bne.n	3a0 <udi_cdc_comm_setup+0x3c>
     3a8:	4906      	ldr	r1, [pc, #24]	; (3c4 <udi_cdc_comm_setup+0x60>)
     3aa:	6119      	str	r1, [r3, #16]
     3ac:	e7eb      	b.n	386 <udi_cdc_comm_setup+0x22>
     3ae:	2401      	movs	r4, #1
     3b0:	8859      	ldrh	r1, [r3, #2]
     3b2:	4b05      	ldr	r3, [pc, #20]	; (3c8 <udi_cdc_comm_setup+0x64>)
     3b4:	4021      	ands	r1, r4
     3b6:	4798      	blx	r3
     3b8:	0020      	movs	r0, r4
     3ba:	e7f1      	b.n	3a0 <udi_cdc_comm_setup+0x3c>
     3bc:	200009dc 	.word	0x200009dc
     3c0:	20000134 	.word	0x20000134
     3c4:	00000151 	.word	0x00000151
     3c8:	00003a55 	.word	0x00003a55

000003cc <udi_cdc_multi_get_nb_received_data>:
     3cc:	b570      	push	{r4, r5, r6, lr}
     3ce:	4b07      	ldr	r3, [pc, #28]	; (3ec <udi_cdc_multi_get_nb_received_data+0x20>)
     3d0:	4798      	blx	r3
     3d2:	4b07      	ldr	r3, [pc, #28]	; (3f0 <udi_cdc_multi_get_nb_received_data+0x24>)
     3d4:	4a07      	ldr	r2, [pc, #28]	; (3f4 <udi_cdc_multi_get_nb_received_data+0x28>)
     3d6:	881d      	ldrh	r5, [r3, #0]
     3d8:	4b07      	ldr	r3, [pc, #28]	; (3f8 <udi_cdc_multi_get_nb_received_data+0x2c>)
     3da:	b2ad      	uxth	r5, r5
     3dc:	781b      	ldrb	r3, [r3, #0]
     3de:	005b      	lsls	r3, r3, #1
     3e0:	5a9c      	ldrh	r4, [r3, r2]
     3e2:	4b06      	ldr	r3, [pc, #24]	; (3fc <udi_cdc_multi_get_nb_received_data+0x30>)
     3e4:	b2a4      	uxth	r4, r4
     3e6:	4798      	blx	r3
     3e8:	1b60      	subs	r0, r4, r5
     3ea:	bd70      	pop	{r4, r5, r6, pc}
     3ec:	00000115 	.word	0x00000115
     3f0:	200003c6 	.word	0x200003c6
     3f4:	200003c0 	.word	0x200003c0
     3f8:	200003c4 	.word	0x200003c4
     3fc:	0000018d 	.word	0x0000018d

00000400 <udi_cdc_multi_is_rx_ready>:
     400:	b510      	push	{r4, lr}
     402:	4b03      	ldr	r3, [pc, #12]	; (410 <STACK_SIZE+0x10>)
     404:	4798      	blx	r3
     406:	1e43      	subs	r3, r0, #1
     408:	4198      	sbcs	r0, r3
     40a:	b2c0      	uxtb	r0, r0
     40c:	bd10      	pop	{r4, pc}
     40e:	46c0      	nop			; (mov r8, r8)
     410:	000003cd 	.word	0x000003cd

00000414 <udi_cdc_rx_start.isra.9>:
     414:	b5f7      	push	{r0, r1, r2, r4, r5, r6, r7, lr}
     416:	4b1a      	ldr	r3, [pc, #104]	; (480 <udi_cdc_rx_start.isra.9+0x6c>)
     418:	4798      	blx	r3
     41a:	491a      	ldr	r1, [pc, #104]	; (484 <udi_cdc_rx_start.isra.9+0x70>)
     41c:	4b1a      	ldr	r3, [pc, #104]	; (488 <udi_cdc_rx_start.isra.9+0x74>)
     41e:	780c      	ldrb	r4, [r1, #0]
     420:	781d      	ldrb	r5, [r3, #0]
     422:	b2e4      	uxtb	r4, r4
     424:	b2ed      	uxtb	r5, r5
     426:	2d00      	cmp	r5, #0
     428:	d106      	bne.n	438 <udi_cdc_rx_start.isra.9+0x24>
     42a:	4e18      	ldr	r6, [pc, #96]	; (48c <udi_cdc_rx_start.isra.9+0x78>)
     42c:	4a18      	ldr	r2, [pc, #96]	; (490 <udi_cdc_rx_start.isra.9+0x7c>)
     42e:	0063      	lsls	r3, r4, #1
     430:	8837      	ldrh	r7, [r6, #0]
     432:	5a9b      	ldrh	r3, [r3, r2]
     434:	429f      	cmp	r7, r3
     436:	d203      	bcs.n	440 <udi_cdc_rx_start.isra.9+0x2c>
     438:	4b16      	ldr	r3, [pc, #88]	; (494 <udi_cdc_rx_start.isra.9+0x80>)
     43a:	4798      	blx	r3
     43c:	2000      	movs	r0, #0
     43e:	bdfe      	pop	{r1, r2, r3, r4, r5, r6, r7, pc}
     440:	8035      	strh	r5, [r6, #0]
     442:	4263      	negs	r3, r4
     444:	4163      	adcs	r3, r4
     446:	b2db      	uxtb	r3, r3
     448:	700b      	strb	r3, [r1, #0]
     44a:	2301      	movs	r3, #1
     44c:	4a0e      	ldr	r2, [pc, #56]	; (488 <udi_cdc_rx_start.isra.9+0x74>)
     44e:	7013      	strb	r3, [r2, #0]
     450:	4b10      	ldr	r3, [pc, #64]	; (494 <udi_cdc_rx_start.isra.9+0x80>)
     452:	4798      	blx	r3
     454:	0028      	movs	r0, r5
     456:	4b10      	ldr	r3, [pc, #64]	; (498 <udi_cdc_rx_start.isra.9+0x84>)
     458:	4798      	blx	r3
     45a:	2800      	cmp	r0, #0
     45c:	d002      	beq.n	464 <udi_cdc_rx_start.isra.9+0x50>
     45e:	0028      	movs	r0, r5
     460:	4b0e      	ldr	r3, [pc, #56]	; (49c <udi_cdc_rx_start.isra.9+0x88>)
     462:	4798      	blx	r3
     464:	23a0      	movs	r3, #160	; 0xa0
     466:	005b      	lsls	r3, r3, #1
     468:	435c      	muls	r4, r3
     46a:	4a0d      	ldr	r2, [pc, #52]	; (4a0 <udi_cdc_rx_start.isra.9+0x8c>)
     46c:	2101      	movs	r1, #1
     46e:	1914      	adds	r4, r2, r4
     470:	4a0c      	ldr	r2, [pc, #48]	; (4a4 <udi_cdc_rx_start.isra.9+0x90>)
     472:	2002      	movs	r0, #2
     474:	9200      	str	r2, [sp, #0]
     476:	0022      	movs	r2, r4
     478:	4c0b      	ldr	r4, [pc, #44]	; (4a8 <udi_cdc_rx_start.isra.9+0x94>)
     47a:	47a0      	blx	r4
     47c:	e7df      	b.n	43e <udi_cdc_rx_start.isra.9+0x2a>
     47e:	46c0      	nop			; (mov r8, r8)
     480:	00000115 	.word	0x00000115
     484:	200003c4 	.word	0x200003c4
     488:	200003c8 	.word	0x200003c8
     48c:	200003c6 	.word	0x200003c6
     490:	200003c0 	.word	0x200003c0
     494:	0000018d 	.word	0x0000018d
     498:	00000401 	.word	0x00000401
     49c:	00003a57 	.word	0x00003a57
     4a0:	20000140 	.word	0x20000140
     4a4:	00000535 	.word	0x00000535
     4a8:	00002a19 	.word	0x00002a19

000004ac <udi_cdc_data_enable>:
     4ac:	b570      	push	{r4, r5, r6, lr}
     4ae:	2400      	movs	r4, #0
     4b0:	4b13      	ldr	r3, [pc, #76]	; (500 <udi_cdc_data_enable+0x54>)
     4b2:	4d14      	ldr	r5, [pc, #80]	; (504 <udi_cdc_data_enable+0x58>)
     4b4:	702c      	strb	r4, [r5, #0]
     4b6:	701c      	strb	r4, [r3, #0]
     4b8:	4b13      	ldr	r3, [pc, #76]	; (508 <udi_cdc_data_enable+0x5c>)
     4ba:	701c      	strb	r4, [r3, #0]
     4bc:	4b13      	ldr	r3, [pc, #76]	; (50c <udi_cdc_data_enable+0x60>)
     4be:	701c      	strb	r4, [r3, #0]
     4c0:	4b13      	ldr	r3, [pc, #76]	; (510 <udi_cdc_data_enable+0x64>)
     4c2:	801c      	strh	r4, [r3, #0]
     4c4:	805c      	strh	r4, [r3, #2]
     4c6:	4b13      	ldr	r3, [pc, #76]	; (514 <udi_cdc_data_enable+0x68>)
     4c8:	801c      	strh	r4, [r3, #0]
     4ca:	4b13      	ldr	r3, [pc, #76]	; (518 <udi_cdc_data_enable+0x6c>)
     4cc:	4798      	blx	r3
     4ce:	4b13      	ldr	r3, [pc, #76]	; (51c <udi_cdc_data_enable+0x70>)
     4d0:	701c      	strb	r4, [r3, #0]
     4d2:	4b13      	ldr	r3, [pc, #76]	; (520 <udi_cdc_data_enable+0x74>)
     4d4:	701c      	strb	r4, [r3, #0]
     4d6:	4b13      	ldr	r3, [pc, #76]	; (524 <udi_cdc_data_enable+0x78>)
     4d8:	801c      	strh	r4, [r3, #0]
     4da:	805c      	strh	r4, [r3, #2]
     4dc:	4b12      	ldr	r3, [pc, #72]	; (528 <udi_cdc_data_enable+0x7c>)
     4de:	801c      	strh	r4, [r3, #0]
     4e0:	4b12      	ldr	r3, [pc, #72]	; (52c <udi_cdc_data_enable+0x80>)
     4e2:	4798      	blx	r3
     4e4:	42a0      	cmp	r0, r4
     4e6:	d009      	beq.n	4fc <udi_cdc_data_enable+0x50>
     4e8:	782b      	ldrb	r3, [r5, #0]
     4ea:	3301      	adds	r3, #1
     4ec:	b2db      	uxtb	r3, r3
     4ee:	702b      	strb	r3, [r5, #0]
     4f0:	782b      	ldrb	r3, [r5, #0]
     4f2:	b2db      	uxtb	r3, r3
     4f4:	2b01      	cmp	r3, #1
     4f6:	d101      	bne.n	4fc <udi_cdc_data_enable+0x50>
     4f8:	4a0d      	ldr	r2, [pc, #52]	; (530 <udi_cdc_data_enable+0x84>)
     4fa:	7013      	strb	r3, [r2, #0]
     4fc:	bd70      	pop	{r4, r5, r6, pc}
     4fe:	46c0      	nop			; (mov r8, r8)
     500:	20000658 	.word	0x20000658
     504:	2000013c 	.word	0x2000013c
     508:	200003cc 	.word	0x200003cc
     50c:	20000654 	.word	0x20000654
     510:	20000650 	.word	0x20000650
     514:	20000656 	.word	0x20000656
     518:	00000209 	.word	0x00000209
     51c:	200003c8 	.word	0x200003c8
     520:	200003c4 	.word	0x200003c4
     524:	200003c0 	.word	0x200003c0
     528:	200003c6 	.word	0x200003c6
     52c:	00000415 	.word	0x00000415
     530:	20000132 	.word	0x20000132

00000534 <udi_cdc_data_received>:
     534:	b513      	push	{r0, r1, r4, lr}
     536:	0003      	movs	r3, r0
     538:	0010      	movs	r0, r2
     53a:	2b00      	cmp	r3, #0
     53c:	d110      	bne.n	560 <udi_cdc_data_received+0x2c>
     53e:	4a0d      	ldr	r2, [pc, #52]	; (574 <udi_cdc_data_received+0x40>)
     540:	7812      	ldrb	r2, [r2, #0]
     542:	4254      	negs	r4, r2
     544:	4162      	adcs	r2, r4
     546:	b2d2      	uxtb	r2, r2
     548:	2900      	cmp	r1, #0
     54a:	d10a      	bne.n	562 <udi_cdc_data_received+0x2e>
     54c:	3341      	adds	r3, #65	; 0x41
     54e:	33ff      	adds	r3, #255	; 0xff
     550:	435a      	muls	r2, r3
     552:	4909      	ldr	r1, [pc, #36]	; (578 <udi_cdc_data_received+0x44>)
     554:	4c09      	ldr	r4, [pc, #36]	; (57c <udi_cdc_data_received+0x48>)
     556:	188a      	adds	r2, r1, r2
     558:	4909      	ldr	r1, [pc, #36]	; (580 <udi_cdc_data_received+0x4c>)
     55a:	9100      	str	r1, [sp, #0]
     55c:	2101      	movs	r1, #1
     55e:	47a0      	blx	r4
     560:	bd13      	pop	{r0, r1, r4, pc}
     562:	4808      	ldr	r0, [pc, #32]	; (584 <udi_cdc_data_received+0x50>)
     564:	b289      	uxth	r1, r1
     566:	0052      	lsls	r2, r2, #1
     568:	5211      	strh	r1, [r2, r0]
     56a:	4a07      	ldr	r2, [pc, #28]	; (588 <udi_cdc_data_received+0x54>)
     56c:	7013      	strb	r3, [r2, #0]
     56e:	4b07      	ldr	r3, [pc, #28]	; (58c <udi_cdc_data_received+0x58>)
     570:	4798      	blx	r3
     572:	e7f5      	b.n	560 <udi_cdc_data_received+0x2c>
     574:	200003c4 	.word	0x200003c4
     578:	20000140 	.word	0x20000140
     57c:	00002a19 	.word	0x00002a19
     580:	00000535 	.word	0x00000535
     584:	200003c0 	.word	0x200003c0
     588:	200003c8 	.word	0x200003c8
     58c:	00000415 	.word	0x00000415

00000590 <udi_cdc_is_rx_ready>:
     590:	b510      	push	{r4, lr}
     592:	2000      	movs	r0, #0
     594:	4b01      	ldr	r3, [pc, #4]	; (59c <udi_cdc_is_rx_ready+0xc>)
     596:	4798      	blx	r3
     598:	bd10      	pop	{r4, pc}
     59a:	46c0      	nop			; (mov r8, r8)
     59c:	00000401 	.word	0x00000401

000005a0 <udi_cdc_multi_getc>:
     5a0:	b5f7      	push	{r0, r1, r2, r4, r5, r6, r7, lr}
     5a2:	4b1a      	ldr	r3, [pc, #104]	; (60c <udi_cdc_multi_getc+0x6c>)
     5a4:	2600      	movs	r6, #0
     5a6:	799b      	ldrb	r3, [r3, #6]
     5a8:	3b09      	subs	r3, #9
     5aa:	425a      	negs	r2, r3
     5ac:	4153      	adcs	r3, r2
     5ae:	b2db      	uxtb	r3, r3
     5b0:	9300      	str	r3, [sp, #0]
     5b2:	4b17      	ldr	r3, [pc, #92]	; (610 <udi_cdc_multi_getc+0x70>)
     5b4:	4798      	blx	r3
     5b6:	4b17      	ldr	r3, [pc, #92]	; (614 <udi_cdc_multi_getc+0x74>)
     5b8:	4f17      	ldr	r7, [pc, #92]	; (618 <udi_cdc_multi_getc+0x78>)
     5ba:	883c      	ldrh	r4, [r7, #0]
     5bc:	781d      	ldrb	r5, [r3, #0]
     5be:	4b17      	ldr	r3, [pc, #92]	; (61c <udi_cdc_multi_getc+0x7c>)
     5c0:	b2ed      	uxtb	r5, r5
     5c2:	006a      	lsls	r2, r5, #1
     5c4:	5ad3      	ldrh	r3, [r2, r3]
     5c6:	b2a4      	uxth	r4, r4
     5c8:	b29b      	uxth	r3, r3
     5ca:	9301      	str	r3, [sp, #4]
     5cc:	4b14      	ldr	r3, [pc, #80]	; (620 <udi_cdc_multi_getc+0x80>)
     5ce:	4798      	blx	r3
     5d0:	9b01      	ldr	r3, [sp, #4]
     5d2:	429c      	cmp	r4, r3
     5d4:	d307      	bcc.n	5e6 <udi_cdc_multi_getc+0x46>
     5d6:	4b13      	ldr	r3, [pc, #76]	; (624 <udi_cdc_multi_getc+0x84>)
     5d8:	781b      	ldrb	r3, [r3, #0]
     5da:	b2db      	uxtb	r3, r3
     5dc:	2b00      	cmp	r3, #0
     5de:	d1e8      	bne.n	5b2 <udi_cdc_multi_getc+0x12>
     5e0:	001e      	movs	r6, r3
     5e2:	0030      	movs	r0, r6
     5e4:	bdfe      	pop	{r1, r2, r3, r4, r5, r6, r7, pc}
     5e6:	23a0      	movs	r3, #160	; 0xa0
     5e8:	005b      	lsls	r3, r3, #1
     5ea:	435d      	muls	r5, r3
     5ec:	4b0e      	ldr	r3, [pc, #56]	; (628 <udi_cdc_multi_getc+0x88>)
     5ee:	195d      	adds	r5, r3, r5
     5f0:	5d2b      	ldrb	r3, [r5, r4]
     5f2:	3401      	adds	r4, #1
     5f4:	431e      	orrs	r6, r3
     5f6:	b2a4      	uxth	r4, r4
     5f8:	4b0c      	ldr	r3, [pc, #48]	; (62c <udi_cdc_multi_getc+0x8c>)
     5fa:	803c      	strh	r4, [r7, #0]
     5fc:	4798      	blx	r3
     5fe:	9b00      	ldr	r3, [sp, #0]
     600:	2b00      	cmp	r3, #0
     602:	d0ee      	beq.n	5e2 <udi_cdc_multi_getc+0x42>
     604:	2300      	movs	r3, #0
     606:	0236      	lsls	r6, r6, #8
     608:	9300      	str	r3, [sp, #0]
     60a:	e7d2      	b.n	5b2 <udi_cdc_multi_getc+0x12>
     60c:	20000134 	.word	0x20000134
     610:	00000115 	.word	0x00000115
     614:	200003c4 	.word	0x200003c4
     618:	200003c6 	.word	0x200003c6
     61c:	200003c0 	.word	0x200003c0
     620:	0000018d 	.word	0x0000018d
     624:	20000132 	.word	0x20000132
     628:	20000140 	.word	0x20000140
     62c:	00000415 	.word	0x00000415

00000630 <udi_cdc_getc>:
     630:	b510      	push	{r4, lr}
     632:	2000      	movs	r0, #0
     634:	4b01      	ldr	r3, [pc, #4]	; (63c <udi_cdc_getc+0xc>)
     636:	4798      	blx	r3
     638:	bd10      	pop	{r4, pc}
     63a:	46c0      	nop			; (mov r8, r8)
     63c:	000005a1 	.word	0x000005a1

00000640 <udi_cdc_multi_read_buf>:
     640:	b5f0      	push	{r4, r5, r6, r7, lr}
     642:	0014      	movs	r4, r2
     644:	b085      	sub	sp, #20
     646:	9101      	str	r1, [sp, #4]
     648:	4b1c      	ldr	r3, [pc, #112]	; (6bc <udi_cdc_multi_read_buf+0x7c>)
     64a:	4798      	blx	r3
     64c:	4b1c      	ldr	r3, [pc, #112]	; (6c0 <udi_cdc_multi_read_buf+0x80>)
     64e:	4f1d      	ldr	r7, [pc, #116]	; (6c4 <udi_cdc_multi_read_buf+0x84>)
     650:	883e      	ldrh	r6, [r7, #0]
     652:	7819      	ldrb	r1, [r3, #0]
     654:	b2b6      	uxth	r6, r6
     656:	b2cb      	uxtb	r3, r1
     658:	9302      	str	r3, [sp, #8]
     65a:	005d      	lsls	r5, r3, #1
     65c:	4b1a      	ldr	r3, [pc, #104]	; (6c8 <udi_cdc_multi_read_buf+0x88>)
     65e:	5aeb      	ldrh	r3, [r5, r3]
     660:	b29b      	uxth	r3, r3
     662:	9303      	str	r3, [sp, #12]
     664:	4b19      	ldr	r3, [pc, #100]	; (6cc <udi_cdc_multi_read_buf+0x8c>)
     666:	4798      	blx	r3
     668:	9b03      	ldr	r3, [sp, #12]
     66a:	429e      	cmp	r6, r3
     66c:	d306      	bcc.n	67c <udi_cdc_multi_read_buf+0x3c>
     66e:	4b18      	ldr	r3, [pc, #96]	; (6d0 <udi_cdc_multi_read_buf+0x90>)
     670:	781b      	ldrb	r3, [r3, #0]
     672:	2b00      	cmp	r3, #0
     674:	d1e8      	bne.n	648 <udi_cdc_multi_read_buf+0x8>
     676:	0020      	movs	r0, r4
     678:	b005      	add	sp, #20
     67a:	bdf0      	pop	{r4, r5, r6, r7, pc}
     67c:	4b12      	ldr	r3, [pc, #72]	; (6c8 <udi_cdc_multi_read_buf+0x88>)
     67e:	5aeb      	ldrh	r3, [r5, r3]
     680:	0025      	movs	r5, r4
     682:	1b9b      	subs	r3, r3, r6
     684:	429c      	cmp	r4, r3
     686:	d900      	bls.n	68a <udi_cdc_multi_read_buf+0x4a>
     688:	001d      	movs	r5, r3
     68a:	23a0      	movs	r3, #160	; 0xa0
     68c:	9902      	ldr	r1, [sp, #8]
     68e:	005b      	lsls	r3, r3, #1
     690:	4359      	muls	r1, r3
     692:	198e      	adds	r6, r1, r6
     694:	490f      	ldr	r1, [pc, #60]	; (6d4 <udi_cdc_multi_read_buf+0x94>)
     696:	4b10      	ldr	r3, [pc, #64]	; (6d8 <udi_cdc_multi_read_buf+0x98>)
     698:	1989      	adds	r1, r1, r6
     69a:	002a      	movs	r2, r5
     69c:	9801      	ldr	r0, [sp, #4]
     69e:	4798      	blx	r3
     6a0:	883b      	ldrh	r3, [r7, #0]
     6a2:	1b64      	subs	r4, r4, r5
     6a4:	195b      	adds	r3, r3, r5
     6a6:	b29b      	uxth	r3, r3
     6a8:	803b      	strh	r3, [r7, #0]
     6aa:	9b01      	ldr	r3, [sp, #4]
     6ac:	195b      	adds	r3, r3, r5
     6ae:	9301      	str	r3, [sp, #4]
     6b0:	4b0a      	ldr	r3, [pc, #40]	; (6dc <udi_cdc_multi_read_buf+0x9c>)
     6b2:	4798      	blx	r3
     6b4:	2c00      	cmp	r4, #0
     6b6:	d1c7      	bne.n	648 <udi_cdc_multi_read_buf+0x8>
     6b8:	e7dd      	b.n	676 <udi_cdc_multi_read_buf+0x36>
     6ba:	46c0      	nop			; (mov r8, r8)
     6bc:	00000115 	.word	0x00000115
     6c0:	200003c4 	.word	0x200003c4
     6c4:	200003c6 	.word	0x200003c6
     6c8:	200003c0 	.word	0x200003c0
     6cc:	0000018d 	.word	0x0000018d
     6d0:	20000132 	.word	0x20000132
     6d4:	20000140 	.word	0x20000140
     6d8:	000046e9 	.word	0x000046e9
     6dc:	00000415 	.word	0x00000415

000006e0 <udi_cdc_multi_read_no_polling>:
     6e0:	b5f7      	push	{r0, r1, r2, r4, r5, r6, r7, lr}
     6e2:	2500      	movs	r5, #0
     6e4:	4b18      	ldr	r3, [pc, #96]	; (748 <udi_cdc_multi_read_no_polling+0x68>)
     6e6:	9101      	str	r1, [sp, #4]
     6e8:	781b      	ldrb	r3, [r3, #0]
     6ea:	0014      	movs	r4, r2
     6ec:	42ab      	cmp	r3, r5
     6ee:	d029      	beq.n	744 <udi_cdc_multi_read_no_polling+0x64>
     6f0:	4b16      	ldr	r3, [pc, #88]	; (74c <udi_cdc_multi_read_no_polling+0x6c>)
     6f2:	4798      	blx	r3
     6f4:	4f16      	ldr	r7, [pc, #88]	; (750 <udi_cdc_multi_read_no_polling+0x70>)
     6f6:	8839      	ldrh	r1, [r7, #0]
     6f8:	b28b      	uxth	r3, r1
     6fa:	9300      	str	r3, [sp, #0]
     6fc:	4b15      	ldr	r3, [pc, #84]	; (754 <udi_cdc_multi_read_no_polling+0x74>)
     6fe:	781e      	ldrb	r6, [r3, #0]
     700:	4b15      	ldr	r3, [pc, #84]	; (758 <udi_cdc_multi_read_no_polling+0x78>)
     702:	b2f6      	uxtb	r6, r6
     704:	0072      	lsls	r2, r6, #1
     706:	5ad5      	ldrh	r5, [r2, r3]
     708:	9b00      	ldr	r3, [sp, #0]
     70a:	1aed      	subs	r5, r5, r3
     70c:	4b13      	ldr	r3, [pc, #76]	; (75c <udi_cdc_multi_read_no_polling+0x7c>)
     70e:	4798      	blx	r3
     710:	42ac      	cmp	r4, r5
     712:	d900      	bls.n	716 <udi_cdc_multi_read_no_polling+0x36>
     714:	002c      	movs	r4, r5
     716:	2c00      	cmp	r4, #0
     718:	d014      	beq.n	744 <udi_cdc_multi_read_no_polling+0x64>
     71a:	21a0      	movs	r1, #160	; 0xa0
     71c:	0049      	lsls	r1, r1, #1
     71e:	434e      	muls	r6, r1
     720:	9b00      	ldr	r3, [sp, #0]
     722:	490f      	ldr	r1, [pc, #60]	; (760 <udi_cdc_multi_read_no_polling+0x80>)
     724:	18f6      	adds	r6, r6, r3
     726:	0022      	movs	r2, r4
     728:	1989      	adds	r1, r1, r6
     72a:	4b0e      	ldr	r3, [pc, #56]	; (764 <udi_cdc_multi_read_no_polling+0x84>)
     72c:	9801      	ldr	r0, [sp, #4]
     72e:	4798      	blx	r3
     730:	4b06      	ldr	r3, [pc, #24]	; (74c <udi_cdc_multi_read_no_polling+0x6c>)
     732:	4798      	blx	r3
     734:	883b      	ldrh	r3, [r7, #0]
     736:	191c      	adds	r4, r3, r4
     738:	b2a4      	uxth	r4, r4
     73a:	4b08      	ldr	r3, [pc, #32]	; (75c <udi_cdc_multi_read_no_polling+0x7c>)
     73c:	803c      	strh	r4, [r7, #0]
     73e:	4798      	blx	r3
     740:	4b09      	ldr	r3, [pc, #36]	; (768 <udi_cdc_multi_read_no_polling+0x88>)
     742:	4798      	blx	r3
     744:	0028      	movs	r0, r5
     746:	bdfe      	pop	{r1, r2, r3, r4, r5, r6, r7, pc}
     748:	20000132 	.word	0x20000132
     74c:	00000115 	.word	0x00000115
     750:	200003c6 	.word	0x200003c6
     754:	200003c4 	.word	0x200003c4
     758:	200003c0 	.word	0x200003c0
     75c:	0000018d 	.word	0x0000018d
     760:	20000140 	.word	0x20000140
     764:	000046e9 	.word	0x000046e9
     768:	00000415 	.word	0x00000415

0000076c <udi_cdc_read_no_polling>:
     76c:	b510      	push	{r4, lr}
     76e:	000a      	movs	r2, r1
     770:	4b02      	ldr	r3, [pc, #8]	; (77c <udi_cdc_read_no_polling+0x10>)
     772:	0001      	movs	r1, r0
     774:	2000      	movs	r0, #0
     776:	4798      	blx	r3
     778:	bd10      	pop	{r4, pc}
     77a:	46c0      	nop			; (mov r8, r8)
     77c:	000006e1 	.word	0x000006e1

00000780 <udi_cdc_read_buf>:
     780:	b510      	push	{r4, lr}
     782:	000a      	movs	r2, r1
     784:	4b02      	ldr	r3, [pc, #8]	; (790 <udi_cdc_read_buf+0x10>)
     786:	0001      	movs	r1, r0
     788:	2000      	movs	r0, #0
     78a:	4798      	blx	r3
     78c:	bd10      	pop	{r4, pc}
     78e:	46c0      	nop			; (mov r8, r8)
     790:	00000641 	.word	0x00000641

00000794 <udi_cdc_multi_get_free_tx_buffer>:
     794:	b570      	push	{r4, r5, r6, lr}
     796:	4b11      	ldr	r3, [pc, #68]	; (7dc <udi_cdc_multi_get_free_tx_buffer+0x48>)
     798:	4798      	blx	r3
     79a:	4911      	ldr	r1, [pc, #68]	; (7e0 <udi_cdc_multi_get_free_tx_buffer+0x4c>)
     79c:	4a11      	ldr	r2, [pc, #68]	; (7e4 <udi_cdc_multi_get_free_tx_buffer+0x50>)
     79e:	780b      	ldrb	r3, [r1, #0]
     7a0:	b2db      	uxtb	r3, r3
     7a2:	005c      	lsls	r4, r3, #1
     7a4:	5aa4      	ldrh	r4, [r4, r2]
     7a6:	22a0      	movs	r2, #160	; 0xa0
     7a8:	0052      	lsls	r2, r2, #1
     7aa:	4294      	cmp	r4, r2
     7ac:	d10f      	bne.n	7ce <udi_cdc_multi_get_free_tx_buffer+0x3a>
     7ae:	4a0e      	ldr	r2, [pc, #56]	; (7e8 <udi_cdc_multi_get_free_tx_buffer+0x54>)
     7b0:	7812      	ldrb	r2, [r2, #0]
     7b2:	2a00      	cmp	r2, #0
     7b4:	d10b      	bne.n	7ce <udi_cdc_multi_get_free_tx_buffer+0x3a>
     7b6:	4d0d      	ldr	r5, [pc, #52]	; (7ec <udi_cdc_multi_get_free_tx_buffer+0x58>)
     7b8:	782a      	ldrb	r2, [r5, #0]
     7ba:	b2d2      	uxtb	r2, r2
     7bc:	2a00      	cmp	r2, #0
     7be:	d106      	bne.n	7ce <udi_cdc_multi_get_free_tx_buffer+0x3a>
     7c0:	2401      	movs	r4, #1
     7c2:	702c      	strb	r4, [r5, #0]
     7c4:	425c      	negs	r4, r3
     7c6:	4163      	adcs	r3, r4
     7c8:	0014      	movs	r4, r2
     7ca:	b2db      	uxtb	r3, r3
     7cc:	700b      	strb	r3, [r1, #0]
     7ce:	4b08      	ldr	r3, [pc, #32]	; (7f0 <udi_cdc_multi_get_free_tx_buffer+0x5c>)
     7d0:	4798      	blx	r3
     7d2:	20a0      	movs	r0, #160	; 0xa0
     7d4:	0040      	lsls	r0, r0, #1
     7d6:	1b00      	subs	r0, r0, r4
     7d8:	bd70      	pop	{r4, r5, r6, pc}
     7da:	46c0      	nop			; (mov r8, r8)
     7dc:	00000115 	.word	0x00000115
     7e0:	20000654 	.word	0x20000654
     7e4:	20000650 	.word	0x20000650
     7e8:	20000658 	.word	0x20000658
     7ec:	200003cc 	.word	0x200003cc
     7f0:	0000018d 	.word	0x0000018d

000007f4 <udi_cdc_multi_is_tx_ready>:
     7f4:	b510      	push	{r4, lr}
     7f6:	4b03      	ldr	r3, [pc, #12]	; (804 <udi_cdc_multi_is_tx_ready+0x10>)
     7f8:	4798      	blx	r3
     7fa:	1e43      	subs	r3, r0, #1
     7fc:	4198      	sbcs	r0, r3
     7fe:	b2c0      	uxtb	r0, r0
     800:	bd10      	pop	{r4, pc}
     802:	46c0      	nop			; (mov r8, r8)
     804:	00000795 	.word	0x00000795

00000808 <udi_cdc_multi_putc>:
     808:	b5f8      	push	{r3, r4, r5, r6, r7, lr}
     80a:	4b15      	ldr	r3, [pc, #84]	; (860 <udi_cdc_multi_putc+0x58>)
     80c:	000d      	movs	r5, r1
     80e:	799c      	ldrb	r4, [r3, #6]
     810:	3c09      	subs	r4, #9
     812:	4263      	negs	r3, r4
     814:	415c      	adcs	r4, r3
     816:	b2e4      	uxtb	r4, r4
     818:	2000      	movs	r0, #0
     81a:	4b12      	ldr	r3, [pc, #72]	; (864 <udi_cdc_multi_putc+0x5c>)
     81c:	4798      	blx	r3
     81e:	2800      	cmp	r0, #0
     820:	d105      	bne.n	82e <udi_cdc_multi_putc+0x26>
     822:	4b11      	ldr	r3, [pc, #68]	; (868 <udi_cdc_multi_putc+0x60>)
     824:	7818      	ldrb	r0, [r3, #0]
     826:	b2c0      	uxtb	r0, r0
     828:	2800      	cmp	r0, #0
     82a:	d1f5      	bne.n	818 <udi_cdc_multi_putc+0x10>
     82c:	bdf8      	pop	{r3, r4, r5, r6, r7, pc}
     82e:	4b0f      	ldr	r3, [pc, #60]	; (86c <udi_cdc_multi_putc+0x64>)
     830:	4798      	blx	r3
     832:	4b0f      	ldr	r3, [pc, #60]	; (870 <udi_cdc_multi_putc+0x68>)
     834:	4a0f      	ldr	r2, [pc, #60]	; (874 <udi_cdc_multi_putc+0x6c>)
     836:	781b      	ldrb	r3, [r3, #0]
     838:	b2db      	uxtb	r3, r3
     83a:	005f      	lsls	r7, r3, #1
     83c:	5ab9      	ldrh	r1, [r7, r2]
     83e:	1c4e      	adds	r6, r1, #1
     840:	52be      	strh	r6, [r7, r2]
     842:	22a0      	movs	r2, #160	; 0xa0
     844:	0052      	lsls	r2, r2, #1
     846:	4353      	muls	r3, r2
     848:	4a0b      	ldr	r2, [pc, #44]	; (878 <udi_cdc_multi_putc+0x70>)
     84a:	18d3      	adds	r3, r2, r3
     84c:	545d      	strb	r5, [r3, r1]
     84e:	4b0b      	ldr	r3, [pc, #44]	; (87c <udi_cdc_multi_putc+0x74>)
     850:	4798      	blx	r3
     852:	2c00      	cmp	r4, #0
     854:	d002      	beq.n	85c <udi_cdc_multi_putc+0x54>
     856:	122d      	asrs	r5, r5, #8
     858:	2400      	movs	r4, #0
     85a:	e7dd      	b.n	818 <udi_cdc_multi_putc+0x10>
     85c:	2001      	movs	r0, #1
     85e:	e7e5      	b.n	82c <udi_cdc_multi_putc+0x24>
     860:	20000134 	.word	0x20000134
     864:	000007f5 	.word	0x000007f5
     868:	20000132 	.word	0x20000132
     86c:	00000115 	.word	0x00000115
     870:	20000654 	.word	0x20000654
     874:	20000650 	.word	0x20000650
     878:	200003d0 	.word	0x200003d0
     87c:	0000018d 	.word	0x0000018d

00000880 <udi_cdc_putc>:
     880:	b510      	push	{r4, lr}
     882:	0001      	movs	r1, r0
     884:	4b01      	ldr	r3, [pc, #4]	; (88c <udi_cdc_putc+0xc>)
     886:	2000      	movs	r0, #0
     888:	4798      	blx	r3
     88a:	bd10      	pop	{r4, pc}
     88c:	00000809 	.word	0x00000809

00000890 <udi_cdc_multi_write_buf>:
     890:	b5f7      	push	{r0, r1, r2, r4, r5, r6, r7, lr}
     892:	4b1d      	ldr	r3, [pc, #116]	; (908 <udi_cdc_multi_write_buf+0x78>)
     894:	799b      	ldrb	r3, [r3, #6]
     896:	2b09      	cmp	r3, #9
     898:	d100      	bne.n	89c <udi_cdc_multi_write_buf+0xc>
     89a:	0052      	lsls	r2, r2, #1
     89c:	0014      	movs	r4, r2
     89e:	9100      	str	r1, [sp, #0]
     8a0:	2000      	movs	r0, #0
     8a2:	4b1a      	ldr	r3, [pc, #104]	; (90c <udi_cdc_multi_write_buf+0x7c>)
     8a4:	4798      	blx	r3
     8a6:	2800      	cmp	r0, #0
     8a8:	d105      	bne.n	8b6 <udi_cdc_multi_write_buf+0x26>
     8aa:	4b19      	ldr	r3, [pc, #100]	; (910 <udi_cdc_multi_write_buf+0x80>)
     8ac:	781b      	ldrb	r3, [r3, #0]
     8ae:	2b00      	cmp	r3, #0
     8b0:	d1f6      	bne.n	8a0 <udi_cdc_multi_write_buf+0x10>
     8b2:	0020      	movs	r0, r4
     8b4:	bdfe      	pop	{r1, r2, r3, r4, r5, r6, r7, pc}
     8b6:	4b17      	ldr	r3, [pc, #92]	; (914 <udi_cdc_multi_write_buf+0x84>)
     8b8:	4798      	blx	r3
     8ba:	4b17      	ldr	r3, [pc, #92]	; (918 <udi_cdc_multi_write_buf+0x88>)
     8bc:	9001      	str	r0, [sp, #4]
     8be:	781d      	ldrb	r5, [r3, #0]
     8c0:	4b16      	ldr	r3, [pc, #88]	; (91c <udi_cdc_multi_write_buf+0x8c>)
     8c2:	b2ed      	uxtb	r5, r5
     8c4:	006a      	lsls	r2, r5, #1
     8c6:	5ad7      	ldrh	r7, [r2, r3]
     8c8:	23a0      	movs	r3, #160	; 0xa0
     8ca:	005b      	lsls	r3, r3, #1
     8cc:	1bdb      	subs	r3, r3, r7
     8ce:	0026      	movs	r6, r4
     8d0:	429c      	cmp	r4, r3
     8d2:	d900      	bls.n	8d6 <udi_cdc_multi_write_buf+0x46>
     8d4:	001e      	movs	r6, r3
     8d6:	23a0      	movs	r3, #160	; 0xa0
     8d8:	005b      	lsls	r3, r3, #1
     8da:	436b      	muls	r3, r5
     8dc:	4810      	ldr	r0, [pc, #64]	; (920 <udi_cdc_multi_write_buf+0x90>)
     8de:	19db      	adds	r3, r3, r7
     8e0:	18c0      	adds	r0, r0, r3
     8e2:	0032      	movs	r2, r6
     8e4:	9900      	ldr	r1, [sp, #0]
     8e6:	4b0f      	ldr	r3, [pc, #60]	; (924 <udi_cdc_multi_write_buf+0x94>)
     8e8:	4798      	blx	r3
     8ea:	4b0c      	ldr	r3, [pc, #48]	; (91c <udi_cdc_multi_write_buf+0x8c>)
     8ec:	006d      	lsls	r5, r5, #1
     8ee:	19bf      	adds	r7, r7, r6
     8f0:	52ef      	strh	r7, [r5, r3]
     8f2:	9801      	ldr	r0, [sp, #4]
     8f4:	4b0c      	ldr	r3, [pc, #48]	; (928 <udi_cdc_multi_write_buf+0x98>)
     8f6:	4798      	blx	r3
     8f8:	9b00      	ldr	r3, [sp, #0]
     8fa:	1ba4      	subs	r4, r4, r6
     8fc:	199b      	adds	r3, r3, r6
     8fe:	9300      	str	r3, [sp, #0]
     900:	2c00      	cmp	r4, #0
     902:	d1cd      	bne.n	8a0 <udi_cdc_multi_write_buf+0x10>
     904:	e7d5      	b.n	8b2 <udi_cdc_multi_write_buf+0x22>
     906:	46c0      	nop			; (mov r8, r8)
     908:	20000134 	.word	0x20000134
     90c:	000007f5 	.word	0x000007f5
     910:	20000132 	.word	0x20000132
     914:	00000115 	.word	0x00000115
     918:	20000654 	.word	0x20000654
     91c:	20000650 	.word	0x20000650
     920:	200003d0 	.word	0x200003d0
     924:	000046e9 	.word	0x000046e9
     928:	0000018d 	.word	0x0000018d

0000092c <udi_cdc_write_buf>:
     92c:	b510      	push	{r4, lr}
     92e:	000a      	movs	r2, r1
     930:	4b02      	ldr	r3, [pc, #8]	; (93c <udi_cdc_write_buf+0x10>)
     932:	0001      	movs	r1, r0
     934:	2000      	movs	r0, #0
     936:	4798      	blx	r3
     938:	bd10      	pop	{r4, pc}
     93a:	46c0      	nop			; (mov r8, r8)
     93c:	00000891 	.word	0x00000891

00000940 <udc_valid_address>:
     940:	b510      	push	{r4, lr}
     942:	4b03      	ldr	r3, [pc, #12]	; (950 <udc_valid_address+0x10>)
     944:	8858      	ldrh	r0, [r3, #2]
     946:	237f      	movs	r3, #127	; 0x7f
     948:	4018      	ands	r0, r3
     94a:	4b02      	ldr	r3, [pc, #8]	; (954 <udc_valid_address+0x14>)
     94c:	4798      	blx	r3
     94e:	bd10      	pop	{r4, pc}
     950:	200009dc 	.word	0x200009dc
     954:	00002b91 	.word	0x00002b91

00000958 <udc_update_iface_desc>:
     958:	b5f0      	push	{r4, r5, r6, r7, lr}
     95a:	4b16      	ldr	r3, [pc, #88]	; (9b4 <udc_update_iface_desc+0x5c>)
     95c:	781b      	ldrb	r3, [r3, #0]
     95e:	2b00      	cmp	r3, #0
     960:	d101      	bne.n	966 <udc_update_iface_desc+0xe>
     962:	2000      	movs	r0, #0
     964:	bdf0      	pop	{r4, r5, r6, r7, pc}
     966:	4b14      	ldr	r3, [pc, #80]	; (9b8 <udc_update_iface_desc+0x60>)
     968:	681b      	ldr	r3, [r3, #0]
     96a:	681b      	ldr	r3, [r3, #0]
     96c:	791a      	ldrb	r2, [r3, #4]
     96e:	4282      	cmp	r2, r0
     970:	d9f7      	bls.n	962 <udc_update_iface_desc+0xa>
     972:	4c12      	ldr	r4, [pc, #72]	; (9bc <udc_update_iface_desc+0x64>)
     974:	2601      	movs	r6, #1
     976:	6023      	str	r3, [r4, #0]
     978:	78da      	ldrb	r2, [r3, #3]
     97a:	789d      	ldrb	r5, [r3, #2]
     97c:	0212      	lsls	r2, r2, #8
     97e:	432a      	orrs	r2, r5
     980:	2500      	movs	r5, #0
     982:	189a      	adds	r2, r3, r2
     984:	429a      	cmp	r2, r3
     986:	d803      	bhi.n	990 <udc_update_iface_desc+0x38>
     988:	2d00      	cmp	r5, #0
     98a:	d0ea      	beq.n	962 <udc_update_iface_desc+0xa>
     98c:	6023      	str	r3, [r4, #0]
     98e:	e7e8      	b.n	962 <udc_update_iface_desc+0xa>
     990:	785f      	ldrb	r7, [r3, #1]
     992:	2f04      	cmp	r7, #4
     994:	d10a      	bne.n	9ac <udc_update_iface_desc+0x54>
     996:	789f      	ldrb	r7, [r3, #2]
     998:	4287      	cmp	r7, r0
     99a:	d107      	bne.n	9ac <udc_update_iface_desc+0x54>
     99c:	78df      	ldrb	r7, [r3, #3]
     99e:	428f      	cmp	r7, r1
     9a0:	d104      	bne.n	9ac <udc_update_iface_desc+0x54>
     9a2:	2d00      	cmp	r5, #0
     9a4:	d000      	beq.n	9a8 <udc_update_iface_desc+0x50>
     9a6:	6023      	str	r3, [r4, #0]
     9a8:	2001      	movs	r0, #1
     9aa:	e7db      	b.n	964 <udc_update_iface_desc+0xc>
     9ac:	781d      	ldrb	r5, [r3, #0]
     9ae:	195b      	adds	r3, r3, r5
     9b0:	0035      	movs	r5, r6
     9b2:	e7e7      	b.n	984 <udc_update_iface_desc+0x2c>
     9b4:	20000670 	.word	0x20000670
     9b8:	20000674 	.word	0x20000674
     9bc:	20000678 	.word	0x20000678

000009c0 <udc_next_desc_in_iface.constprop.3>:
     9c0:	4b09      	ldr	r3, [pc, #36]	; (9e8 <udc_next_desc_in_iface.constprop.3+0x28>)
     9c2:	681b      	ldr	r3, [r3, #0]
     9c4:	681b      	ldr	r3, [r3, #0]
     9c6:	78da      	ldrb	r2, [r3, #3]
     9c8:	7899      	ldrb	r1, [r3, #2]
     9ca:	0212      	lsls	r2, r2, #8
     9cc:	430a      	orrs	r2, r1
     9ce:	189b      	adds	r3, r3, r2
     9d0:	7802      	ldrb	r2, [r0, #0]
     9d2:	1880      	adds	r0, r0, r2
     9d4:	4298      	cmp	r0, r3
     9d6:	d301      	bcc.n	9dc <udc_next_desc_in_iface.constprop.3+0x1c>
     9d8:	2000      	movs	r0, #0
     9da:	e004      	b.n	9e6 <udc_next_desc_in_iface.constprop.3+0x26>
     9dc:	7842      	ldrb	r2, [r0, #1]
     9de:	2a04      	cmp	r2, #4
     9e0:	d0fa      	beq.n	9d8 <udc_next_desc_in_iface.constprop.3+0x18>
     9e2:	2a05      	cmp	r2, #5
     9e4:	d1f4      	bne.n	9d0 <udc_next_desc_in_iface.constprop.3+0x10>
     9e6:	4770      	bx	lr
     9e8:	20000674 	.word	0x20000674

000009ec <udc_iface_enable>:
     9ec:	b570      	push	{r4, r5, r6, lr}
     9ee:	4b10      	ldr	r3, [pc, #64]	; (a30 <udc_iface_enable+0x44>)
     9f0:	0005      	movs	r5, r0
     9f2:	4798      	blx	r3
     9f4:	2800      	cmp	r0, #0
     9f6:	d101      	bne.n	9fc <udc_iface_enable+0x10>
     9f8:	2000      	movs	r0, #0
     9fa:	bd70      	pop	{r4, r5, r6, pc}
     9fc:	4b0d      	ldr	r3, [pc, #52]	; (a34 <udc_iface_enable+0x48>)
     9fe:	681c      	ldr	r4, [r3, #0]
     a00:	0020      	movs	r0, r4
     a02:	4b0d      	ldr	r3, [pc, #52]	; (a38 <udc_iface_enable+0x4c>)
     a04:	4798      	blx	r3
     a06:	1e04      	subs	r4, r0, #0
     a08:	d00a      	beq.n	a20 <udc_iface_enable+0x34>
     a0a:	7942      	ldrb	r2, [r0, #5]
     a0c:	7903      	ldrb	r3, [r0, #4]
     a0e:	0212      	lsls	r2, r2, #8
     a10:	431a      	orrs	r2, r3
     a12:	78c1      	ldrb	r1, [r0, #3]
     a14:	4b09      	ldr	r3, [pc, #36]	; (a3c <udc_iface_enable+0x50>)
     a16:	7880      	ldrb	r0, [r0, #2]
     a18:	4798      	blx	r3
     a1a:	2800      	cmp	r0, #0
     a1c:	d1f0      	bne.n	a00 <udc_iface_enable+0x14>
     a1e:	e7eb      	b.n	9f8 <udc_iface_enable+0xc>
     a20:	4b07      	ldr	r3, [pc, #28]	; (a40 <udc_iface_enable+0x54>)
     a22:	00ad      	lsls	r5, r5, #2
     a24:	681b      	ldr	r3, [r3, #0]
     a26:	685b      	ldr	r3, [r3, #4]
     a28:	58eb      	ldr	r3, [r5, r3]
     a2a:	681b      	ldr	r3, [r3, #0]
     a2c:	4798      	blx	r3
     a2e:	e7e4      	b.n	9fa <udc_iface_enable+0xe>
     a30:	00000959 	.word	0x00000959
     a34:	20000678 	.word	0x20000678
     a38:	000009c1 	.word	0x000009c1
     a3c:	000027fd 	.word	0x000027fd
     a40:	20000674 	.word	0x20000674

00000a44 <udc_iface_disable>:
     a44:	b570      	push	{r4, r5, r6, lr}
     a46:	2100      	movs	r1, #0
     a48:	4d10      	ldr	r5, [pc, #64]	; (a8c <udc_iface_disable+0x48>)
     a4a:	0004      	movs	r4, r0
     a4c:	47a8      	blx	r5
     a4e:	2800      	cmp	r0, #0
     a50:	d102      	bne.n	a58 <udc_iface_disable+0x14>
     a52:	2500      	movs	r5, #0
     a54:	0028      	movs	r0, r5
     a56:	bd70      	pop	{r4, r5, r6, pc}
     a58:	4b0d      	ldr	r3, [pc, #52]	; (a90 <udc_iface_disable+0x4c>)
     a5a:	00a2      	lsls	r2, r4, #2
     a5c:	681b      	ldr	r3, [r3, #0]
     a5e:	685b      	ldr	r3, [r3, #4]
     a60:	58d6      	ldr	r6, [r2, r3]
     a62:	68f3      	ldr	r3, [r6, #12]
     a64:	4798      	blx	r3
     a66:	0001      	movs	r1, r0
     a68:	0020      	movs	r0, r4
     a6a:	47a8      	blx	r5
     a6c:	1e05      	subs	r5, r0, #0
     a6e:	d0f0      	beq.n	a52 <udc_iface_disable+0xe>
     a70:	4b08      	ldr	r3, [pc, #32]	; (a94 <udc_iface_disable+0x50>)
     a72:	681c      	ldr	r4, [r3, #0]
     a74:	0020      	movs	r0, r4
     a76:	4b08      	ldr	r3, [pc, #32]	; (a98 <udc_iface_disable+0x54>)
     a78:	4798      	blx	r3
     a7a:	1e04      	subs	r4, r0, #0
     a7c:	d003      	beq.n	a86 <udc_iface_disable+0x42>
     a7e:	7880      	ldrb	r0, [r0, #2]
     a80:	4b06      	ldr	r3, [pc, #24]	; (a9c <udc_iface_disable+0x58>)
     a82:	4798      	blx	r3
     a84:	e7f6      	b.n	a74 <udc_iface_disable+0x30>
     a86:	6873      	ldr	r3, [r6, #4]
     a88:	4798      	blx	r3
     a8a:	e7e3      	b.n	a54 <udc_iface_disable+0x10>
     a8c:	00000959 	.word	0x00000959
     a90:	20000674 	.word	0x20000674
     a94:	20000678 	.word	0x20000678
     a98:	000009c1 	.word	0x000009c1
     a9c:	000027a9 	.word	0x000027a9

00000aa0 <udc_start>:
     aa0:	b510      	push	{r4, lr}
     aa2:	4b01      	ldr	r3, [pc, #4]	; (aa8 <udc_start+0x8>)
     aa4:	4798      	blx	r3
     aa6:	bd10      	pop	{r4, pc}
     aa8:	00002c41 	.word	0x00002c41

00000aac <udc_reset>:
     aac:	b570      	push	{r4, r5, r6, lr}
     aae:	4d0b      	ldr	r5, [pc, #44]	; (adc <udc_reset+0x30>)
     ab0:	2400      	movs	r4, #0
     ab2:	782b      	ldrb	r3, [r5, #0]
     ab4:	2b00      	cmp	r3, #0
     ab6:	d10a      	bne.n	ace <udc_reset+0x22>
     ab8:	2300      	movs	r3, #0
     aba:	2201      	movs	r2, #1
     abc:	702b      	strb	r3, [r5, #0]
     abe:	4b08      	ldr	r3, [pc, #32]	; (ae0 <udc_reset+0x34>)
     ac0:	801a      	strh	r2, [r3, #0]
     ac2:	bd70      	pop	{r4, r5, r6, pc}
     ac4:	0020      	movs	r0, r4
     ac6:	4b07      	ldr	r3, [pc, #28]	; (ae4 <udc_reset+0x38>)
     ac8:	4798      	blx	r3
     aca:	3401      	adds	r4, #1
     acc:	b2e4      	uxtb	r4, r4
     ace:	4b06      	ldr	r3, [pc, #24]	; (ae8 <udc_reset+0x3c>)
     ad0:	681b      	ldr	r3, [r3, #0]
     ad2:	681b      	ldr	r3, [r3, #0]
     ad4:	791b      	ldrb	r3, [r3, #4]
     ad6:	42a3      	cmp	r3, r4
     ad8:	d8f4      	bhi.n	ac4 <udc_reset+0x18>
     ada:	e7ed      	b.n	ab8 <udc_reset+0xc>
     adc:	20000670 	.word	0x20000670
     ae0:	20000666 	.word	0x20000666
     ae4:	00000a45 	.word	0x00000a45
     ae8:	20000674 	.word	0x20000674

00000aec <udc_sof_notify>:
     aec:	b510      	push	{r4, lr}
     aee:	4b0b      	ldr	r3, [pc, #44]	; (b1c <udc_sof_notify+0x30>)
     af0:	2400      	movs	r4, #0
     af2:	781b      	ldrb	r3, [r3, #0]
     af4:	2b00      	cmp	r3, #0
     af6:	d109      	bne.n	b0c <udc_sof_notify+0x20>
     af8:	bd10      	pop	{r4, pc}
     afa:	685b      	ldr	r3, [r3, #4]
     afc:	00a2      	lsls	r2, r4, #2
     afe:	58d3      	ldr	r3, [r2, r3]
     b00:	691b      	ldr	r3, [r3, #16]
     b02:	2b00      	cmp	r3, #0
     b04:	d000      	beq.n	b08 <udc_sof_notify+0x1c>
     b06:	4798      	blx	r3
     b08:	3401      	adds	r4, #1
     b0a:	b2e4      	uxtb	r4, r4
     b0c:	4b04      	ldr	r3, [pc, #16]	; (b20 <udc_sof_notify+0x34>)
     b0e:	681b      	ldr	r3, [r3, #0]
     b10:	681a      	ldr	r2, [r3, #0]
     b12:	7912      	ldrb	r2, [r2, #4]
     b14:	42a2      	cmp	r2, r4
     b16:	d8f0      	bhi.n	afa <udc_sof_notify+0xe>
     b18:	e7ee      	b.n	af8 <udc_sof_notify+0xc>
     b1a:	46c0      	nop			; (mov r8, r8)
     b1c:	20000670 	.word	0x20000670
     b20:	20000674 	.word	0x20000674

00000b24 <udc_process_setup>:
     b24:	b5f8      	push	{r3, r4, r5, r6, r7, lr}
     b26:	2300      	movs	r3, #0
     b28:	4ca9      	ldr	r4, [pc, #676]	; (dd0 <udc_process_setup+0x2ac>)
     b2a:	81a3      	strh	r3, [r4, #12]
     b2c:	6123      	str	r3, [r4, #16]
     b2e:	6163      	str	r3, [r4, #20]
     b30:	7823      	ldrb	r3, [r4, #0]
     b32:	b258      	sxtb	r0, r3
     b34:	2800      	cmp	r0, #0
     b36:	da05      	bge.n	b44 <udc_process_setup+0x20>
     b38:	88e2      	ldrh	r2, [r4, #6]
     b3a:	2a00      	cmp	r2, #0
     b3c:	d102      	bne.n	b44 <udc_process_setup+0x20>
     b3e:	2500      	movs	r5, #0
     b40:	0028      	movs	r0, r5
     b42:	bdf8      	pop	{r3, r4, r5, r6, r7, pc}
     b44:	2160      	movs	r1, #96	; 0x60
     b46:	4019      	ands	r1, r3
     b48:	d120      	bne.n	b8c <udc_process_setup+0x68>
     b4a:	221f      	movs	r2, #31
     b4c:	2800      	cmp	r0, #0
     b4e:	db00      	blt.n	b52 <udc_process_setup+0x2e>
     b50:	e0cb      	b.n	cea <udc_process_setup+0x1c6>
     b52:	88e5      	ldrh	r5, [r4, #6]
     b54:	2d00      	cmp	r5, #0
     b56:	d019      	beq.n	b8c <udc_process_setup+0x68>
     b58:	4013      	ands	r3, r2
     b5a:	d000      	beq.n	b5e <udc_process_setup+0x3a>
     b5c:	e08b      	b.n	c76 <udc_process_setup+0x152>
     b5e:	7863      	ldrb	r3, [r4, #1]
     b60:	2b06      	cmp	r3, #6
     b62:	d00c      	beq.n	b7e <udc_process_setup+0x5a>
     b64:	2b08      	cmp	r3, #8
     b66:	d100      	bne.n	b6a <udc_process_setup+0x46>
     b68:	e07e      	b.n	c68 <udc_process_setup+0x144>
     b6a:	2b00      	cmp	r3, #0
     b6c:	d10e      	bne.n	b8c <udc_process_setup+0x68>
     b6e:	2d02      	cmp	r5, #2
     b70:	d112      	bne.n	b98 <udc_process_setup+0x74>
     b72:	0029      	movs	r1, r5
     b74:	4897      	ldr	r0, [pc, #604]	; (dd4 <udc_process_setup+0x2b0>)
     b76:	4b98      	ldr	r3, [pc, #608]	; (dd8 <udc_process_setup+0x2b4>)
     b78:	4798      	blx	r3
     b7a:	2501      	movs	r5, #1
     b7c:	e7e0      	b.n	b40 <udc_process_setup+0x1c>
     b7e:	8863      	ldrh	r3, [r4, #2]
     b80:	0a1d      	lsrs	r5, r3, #8
     b82:	2d02      	cmp	r5, #2
     b84:	d03d      	beq.n	c02 <udc_process_setup+0xde>
     b86:	d829      	bhi.n	bdc <udc_process_setup+0xb8>
     b88:	2d01      	cmp	r5, #1
     b8a:	d034      	beq.n	bf6 <udc_process_setup+0xd2>
     b8c:	221f      	movs	r2, #31
     b8e:	7823      	ldrb	r3, [r4, #0]
     b90:	4013      	ands	r3, r2
     b92:	2b01      	cmp	r3, #1
     b94:	d100      	bne.n	b98 <udc_process_setup+0x74>
     b96:	e164      	b.n	e62 <udc_process_setup+0x33e>
     b98:	221f      	movs	r2, #31
     b9a:	7823      	ldrb	r3, [r4, #0]
     b9c:	4013      	ands	r3, r2
     b9e:	2b02      	cmp	r3, #2
     ba0:	d1cd      	bne.n	b3e <udc_process_setup+0x1a>
     ba2:	4b8e      	ldr	r3, [pc, #568]	; (ddc <udc_process_setup+0x2b8>)
     ba4:	2400      	movs	r4, #0
     ba6:	781b      	ldrb	r3, [r3, #0]
     ba8:	2b00      	cmp	r3, #0
     baa:	d0c8      	beq.n	b3e <udc_process_setup+0x1a>
     bac:	4b8c      	ldr	r3, [pc, #560]	; (de0 <udc_process_setup+0x2bc>)
     bae:	681b      	ldr	r3, [r3, #0]
     bb0:	681a      	ldr	r2, [r3, #0]
     bb2:	7912      	ldrb	r2, [r2, #4]
     bb4:	42a2      	cmp	r2, r4
     bb6:	d9c2      	bls.n	b3e <udc_process_setup+0x1a>
     bb8:	685b      	ldr	r3, [r3, #4]
     bba:	00a2      	lsls	r2, r4, #2
     bbc:	58d5      	ldr	r5, [r2, r3]
     bbe:	68eb      	ldr	r3, [r5, #12]
     bc0:	4798      	blx	r3
     bc2:	4b88      	ldr	r3, [pc, #544]	; (de4 <udc_process_setup+0x2c0>)
     bc4:	0001      	movs	r1, r0
     bc6:	0020      	movs	r0, r4
     bc8:	4798      	blx	r3
     bca:	2800      	cmp	r0, #0
     bcc:	d0b7      	beq.n	b3e <udc_process_setup+0x1a>
     bce:	68ab      	ldr	r3, [r5, #8]
     bd0:	4798      	blx	r3
     bd2:	2800      	cmp	r0, #0
     bd4:	d1d1      	bne.n	b7a <udc_process_setup+0x56>
     bd6:	3401      	adds	r4, #1
     bd8:	b2e4      	uxtb	r4, r4
     bda:	e7e7      	b.n	bac <udc_process_setup+0x88>
     bdc:	2d03      	cmp	r5, #3
     bde:	d027      	beq.n	c30 <udc_process_setup+0x10c>
     be0:	2d0f      	cmp	r5, #15
     be2:	d1d3      	bne.n	b8c <udc_process_setup+0x68>
     be4:	4b80      	ldr	r3, [pc, #512]	; (de8 <udc_process_setup+0x2c4>)
     be6:	6898      	ldr	r0, [r3, #8]
     be8:	2800      	cmp	r0, #0
     bea:	d0d5      	beq.n	b98 <udc_process_setup+0x74>
     bec:	78c1      	ldrb	r1, [r0, #3]
     bee:	7883      	ldrb	r3, [r0, #2]
     bf0:	0209      	lsls	r1, r1, #8
     bf2:	4319      	orrs	r1, r3
     bf4:	e002      	b.n	bfc <udc_process_setup+0xd8>
     bf6:	4b7c      	ldr	r3, [pc, #496]	; (de8 <udc_process_setup+0x2c4>)
     bf8:	6818      	ldr	r0, [r3, #0]
     bfa:	7801      	ldrb	r1, [r0, #0]
     bfc:	4b76      	ldr	r3, [pc, #472]	; (dd8 <udc_process_setup+0x2b4>)
     bfe:	4798      	blx	r3
     c00:	e010      	b.n	c24 <udc_process_setup+0x100>
     c02:	4a79      	ldr	r2, [pc, #484]	; (de8 <udc_process_setup+0x2c4>)
     c04:	b2db      	uxtb	r3, r3
     c06:	6811      	ldr	r1, [r2, #0]
     c08:	7c49      	ldrb	r1, [r1, #17]
     c0a:	4299      	cmp	r1, r3
     c0c:	d9c4      	bls.n	b98 <udc_process_setup+0x74>
     c0e:	6852      	ldr	r2, [r2, #4]
     c10:	00db      	lsls	r3, r3, #3
     c12:	5898      	ldr	r0, [r3, r2]
     c14:	78c1      	ldrb	r1, [r0, #3]
     c16:	7883      	ldrb	r3, [r0, #2]
     c18:	0209      	lsls	r1, r1, #8
     c1a:	4319      	orrs	r1, r3
     c1c:	4b6e      	ldr	r3, [pc, #440]	; (dd8 <udc_process_setup+0x2b4>)
     c1e:	4798      	blx	r3
     c20:	68a3      	ldr	r3, [r4, #8]
     c22:	705d      	strb	r5, [r3, #1]
     c24:	88e3      	ldrh	r3, [r4, #6]
     c26:	89a2      	ldrh	r2, [r4, #12]
     c28:	429a      	cmp	r2, r3
     c2a:	d9a6      	bls.n	b7a <udc_process_setup+0x56>
     c2c:	81a3      	strh	r3, [r4, #12]
     c2e:	e7a4      	b.n	b7a <udc_process_setup+0x56>
     c30:	b2db      	uxtb	r3, r3
     c32:	2b01      	cmp	r3, #1
     c34:	d100      	bne.n	c38 <udc_process_setup+0x114>
     c36:	e139      	b.n	eac <udc_process_setup+0x388>
     c38:	2b00      	cmp	r3, #0
     c3a:	d012      	beq.n	c62 <udc_process_setup+0x13e>
     c3c:	2b02      	cmp	r3, #2
     c3e:	d1a5      	bne.n	b8c <udc_process_setup+0x68>
     c40:	211d      	movs	r1, #29
     c42:	4d6a      	ldr	r5, [pc, #424]	; (dec <udc_process_setup+0x2c8>)
     c44:	2300      	movs	r3, #0
     c46:	486a      	ldr	r0, [pc, #424]	; (df0 <udc_process_setup+0x2cc>)
     c48:	005a      	lsls	r2, r3, #1
     c4a:	5cee      	ldrb	r6, [r5, r3]
     c4c:	1882      	adds	r2, r0, r2
     c4e:	3301      	adds	r3, #1
     c50:	8056      	strh	r6, [r2, #2]
     c52:	b2da      	uxtb	r2, r3
     c54:	4291      	cmp	r1, r2
     c56:	d8f7      	bhi.n	c48 <udc_process_setup+0x124>
     c58:	0049      	lsls	r1, r1, #1
     c5a:	3102      	adds	r1, #2
     c5c:	7001      	strb	r1, [r0, #0]
     c5e:	b289      	uxth	r1, r1
     c60:	e7cc      	b.n	bfc <udc_process_setup+0xd8>
     c62:	2104      	movs	r1, #4
     c64:	4863      	ldr	r0, [pc, #396]	; (df4 <udc_process_setup+0x2d0>)
     c66:	e7c9      	b.n	bfc <udc_process_setup+0xd8>
     c68:	2d01      	cmp	r5, #1
     c6a:	d195      	bne.n	b98 <udc_process_setup+0x74>
     c6c:	0029      	movs	r1, r5
     c6e:	485b      	ldr	r0, [pc, #364]	; (ddc <udc_process_setup+0x2b8>)
     c70:	4b59      	ldr	r3, [pc, #356]	; (dd8 <udc_process_setup+0x2b4>)
     c72:	4798      	blx	r3
     c74:	e764      	b.n	b40 <udc_process_setup+0x1c>
     c76:	2b01      	cmp	r3, #1
     c78:	d122      	bne.n	cc0 <udc_process_setup+0x19c>
     c7a:	7863      	ldrb	r3, [r4, #1]
     c7c:	2b0a      	cmp	r3, #10
     c7e:	d185      	bne.n	b8c <udc_process_setup+0x68>
     c80:	2d01      	cmp	r5, #1
     c82:	d000      	beq.n	c86 <udc_process_setup+0x162>
     c84:	e0ed      	b.n	e62 <udc_process_setup+0x33e>
     c86:	4b55      	ldr	r3, [pc, #340]	; (ddc <udc_process_setup+0x2b8>)
     c88:	781b      	ldrb	r3, [r3, #0]
     c8a:	2b00      	cmp	r3, #0
     c8c:	d100      	bne.n	c90 <udc_process_setup+0x16c>
     c8e:	e0e8      	b.n	e62 <udc_process_setup+0x33e>
     c90:	4b53      	ldr	r3, [pc, #332]	; (de0 <udc_process_setup+0x2bc>)
     c92:	7926      	ldrb	r6, [r4, #4]
     c94:	681f      	ldr	r7, [r3, #0]
     c96:	683b      	ldr	r3, [r7, #0]
     c98:	791b      	ldrb	r3, [r3, #4]
     c9a:	42b3      	cmp	r3, r6
     c9c:	d800      	bhi.n	ca0 <udc_process_setup+0x17c>
     c9e:	e0e0      	b.n	e62 <udc_process_setup+0x33e>
     ca0:	0030      	movs	r0, r6
     ca2:	4b50      	ldr	r3, [pc, #320]	; (de4 <udc_process_setup+0x2c0>)
     ca4:	4798      	blx	r3
     ca6:	1e05      	subs	r5, r0, #0
     ca8:	d100      	bne.n	cac <udc_process_setup+0x188>
     caa:	e76f      	b.n	b8c <udc_process_setup+0x68>
     cac:	687b      	ldr	r3, [r7, #4]
     cae:	00b6      	lsls	r6, r6, #2
     cb0:	58f3      	ldr	r3, [r6, r3]
     cb2:	68db      	ldr	r3, [r3, #12]
     cb4:	4798      	blx	r3
     cb6:	4b50      	ldr	r3, [pc, #320]	; (df8 <udc_process_setup+0x2d4>)
     cb8:	2101      	movs	r1, #1
     cba:	7018      	strb	r0, [r3, #0]
     cbc:	0018      	movs	r0, r3
     cbe:	e7d7      	b.n	c70 <udc_process_setup+0x14c>
     cc0:	2b02      	cmp	r3, #2
     cc2:	d000      	beq.n	cc6 <udc_process_setup+0x1a2>
     cc4:	e762      	b.n	b8c <udc_process_setup+0x68>
     cc6:	7863      	ldrb	r3, [r4, #1]
     cc8:	2b00      	cmp	r3, #0
     cca:	d000      	beq.n	cce <udc_process_setup+0x1aa>
     ccc:	e75e      	b.n	b8c <udc_process_setup+0x68>
     cce:	2d02      	cmp	r5, #2
     cd0:	d000      	beq.n	cd4 <udc_process_setup+0x1b0>
     cd2:	e761      	b.n	b98 <udc_process_setup+0x74>
     cd4:	4b49      	ldr	r3, [pc, #292]	; (dfc <udc_process_setup+0x2d8>)
     cd6:	7920      	ldrb	r0, [r4, #4]
     cd8:	4798      	blx	r3
     cda:	4b49      	ldr	r3, [pc, #292]	; (e00 <udc_process_setup+0x2dc>)
     cdc:	0029      	movs	r1, r5
     cde:	8018      	strh	r0, [r3, #0]
     ce0:	0018      	movs	r0, r3
     ce2:	4b3d      	ldr	r3, [pc, #244]	; (dd8 <udc_process_setup+0x2b4>)
     ce4:	4798      	blx	r3
     ce6:	3d01      	subs	r5, #1
     ce8:	e72a      	b.n	b40 <udc_process_setup+0x1c>
     cea:	4013      	ands	r3, r2
     cec:	d153      	bne.n	d96 <udc_process_setup+0x272>
     cee:	7860      	ldrb	r0, [r4, #1]
     cf0:	3801      	subs	r0, #1
     cf2:	2808      	cmp	r0, #8
     cf4:	d900      	bls.n	cf8 <udc_process_setup+0x1d4>
     cf6:	e749      	b.n	b8c <udc_process_setup+0x68>
     cf8:	f003 fafc 	bl	42f4 <__gnu_thumb1_case_shi>
     cfc:	ff480010 	.word	0xff480010
     d00:	ff48ff48 	.word	0xff48ff48
     d04:	ff480009 	.word	0xff480009
     d08:	ff48ff48 	.word	0xff48ff48
     d0c:	001e      	.short	0x001e
     d0e:	88e3      	ldrh	r3, [r4, #6]
     d10:	2b00      	cmp	r3, #0
     d12:	d000      	beq.n	d16 <udc_process_setup+0x1f2>
     d14:	e740      	b.n	b98 <udc_process_setup+0x74>
     d16:	4b3b      	ldr	r3, [pc, #236]	; (e04 <udc_process_setup+0x2e0>)
     d18:	6123      	str	r3, [r4, #16]
     d1a:	e72e      	b.n	b7a <udc_process_setup+0x56>
     d1c:	88e3      	ldrh	r3, [r4, #6]
     d1e:	2b00      	cmp	r3, #0
     d20:	d000      	beq.n	d24 <udc_process_setup+0x200>
     d22:	e739      	b.n	b98 <udc_process_setup+0x74>
     d24:	8865      	ldrh	r5, [r4, #2]
     d26:	2d01      	cmp	r5, #1
     d28:	d000      	beq.n	d2c <udc_process_setup+0x208>
     d2a:	e735      	b.n	b98 <udc_process_setup+0x74>
     d2c:	2102      	movs	r1, #2
     d2e:	4a29      	ldr	r2, [pc, #164]	; (dd4 <udc_process_setup+0x2b0>)
     d30:	8813      	ldrh	r3, [r2, #0]
     d32:	438b      	bics	r3, r1
     d34:	8013      	strh	r3, [r2, #0]
     d36:	e703      	b.n	b40 <udc_process_setup+0x1c>
     d38:	88e5      	ldrh	r5, [r4, #6]
     d3a:	2d00      	cmp	r5, #0
     d3c:	d000      	beq.n	d40 <udc_process_setup+0x21c>
     d3e:	e72b      	b.n	b98 <udc_process_setup+0x74>
     d40:	4b31      	ldr	r3, [pc, #196]	; (e08 <udc_process_setup+0x2e4>)
     d42:	4798      	blx	r3
     d44:	2800      	cmp	r0, #0
     d46:	d100      	bne.n	d4a <udc_process_setup+0x226>
     d48:	e720      	b.n	b8c <udc_process_setup+0x68>
     d4a:	4f27      	ldr	r7, [pc, #156]	; (de8 <udc_process_setup+0x2c4>)
     d4c:	78a2      	ldrb	r2, [r4, #2]
     d4e:	683b      	ldr	r3, [r7, #0]
     d50:	7c5b      	ldrb	r3, [r3, #17]
     d52:	429a      	cmp	r2, r3
     d54:	dd00      	ble.n	d58 <udc_process_setup+0x234>
     d56:	e719      	b.n	b8c <udc_process_setup+0x68>
     d58:	4b2c      	ldr	r3, [pc, #176]	; (e0c <udc_process_setup+0x2e8>)
     d5a:	4798      	blx	r3
     d5c:	78a3      	ldrb	r3, [r4, #2]
     d5e:	4a1f      	ldr	r2, [pc, #124]	; (ddc <udc_process_setup+0x2b8>)
     d60:	7013      	strb	r3, [r2, #0]
     d62:	2b00      	cmp	r3, #0
     d64:	d100      	bne.n	d68 <udc_process_setup+0x244>
     d66:	e708      	b.n	b7a <udc_process_setup+0x56>
     d68:	4a29      	ldr	r2, [pc, #164]	; (e10 <udc_process_setup+0x2ec>)
     d6a:	4e1d      	ldr	r6, [pc, #116]	; (de0 <udc_process_setup+0x2bc>)
     d6c:	189b      	adds	r3, r3, r2
     d6e:	687a      	ldr	r2, [r7, #4]
     d70:	00db      	lsls	r3, r3, #3
     d72:	18d3      	adds	r3, r2, r3
     d74:	6033      	str	r3, [r6, #0]
     d76:	6833      	ldr	r3, [r6, #0]
     d78:	681b      	ldr	r3, [r3, #0]
     d7a:	791b      	ldrb	r3, [r3, #4]
     d7c:	42ab      	cmp	r3, r5
     d7e:	d800      	bhi.n	d82 <udc_process_setup+0x25e>
     d80:	e6fb      	b.n	b7a <udc_process_setup+0x56>
     d82:	2100      	movs	r1, #0
     d84:	0028      	movs	r0, r5
     d86:	4b23      	ldr	r3, [pc, #140]	; (e14 <udc_process_setup+0x2f0>)
     d88:	4798      	blx	r3
     d8a:	2800      	cmp	r0, #0
     d8c:	d100      	bne.n	d90 <udc_process_setup+0x26c>
     d8e:	e6fd      	b.n	b8c <udc_process_setup+0x68>
     d90:	3501      	adds	r5, #1
     d92:	b2ed      	uxtb	r5, r5
     d94:	e7ef      	b.n	d76 <udc_process_setup+0x252>
     d96:	2b01      	cmp	r3, #1
     d98:	d140      	bne.n	e1c <udc_process_setup+0x2f8>
     d9a:	7863      	ldrb	r3, [r4, #1]
     d9c:	2b0b      	cmp	r3, #11
     d9e:	d000      	beq.n	da2 <udc_process_setup+0x27e>
     da0:	e6f4      	b.n	b8c <udc_process_setup+0x68>
     da2:	88e3      	ldrh	r3, [r4, #6]
     da4:	2b00      	cmp	r3, #0
     da6:	d15c      	bne.n	e62 <udc_process_setup+0x33e>
     da8:	4b0c      	ldr	r3, [pc, #48]	; (ddc <udc_process_setup+0x2b8>)
     daa:	781b      	ldrb	r3, [r3, #0]
     dac:	2b00      	cmp	r3, #0
     dae:	d058      	beq.n	e62 <udc_process_setup+0x33e>
     db0:	7926      	ldrb	r6, [r4, #4]
     db2:	4b19      	ldr	r3, [pc, #100]	; (e18 <udc_process_setup+0x2f4>)
     db4:	0030      	movs	r0, r6
     db6:	8865      	ldrh	r5, [r4, #2]
     db8:	4798      	blx	r3
     dba:	2800      	cmp	r0, #0
     dbc:	d100      	bne.n	dc0 <udc_process_setup+0x29c>
     dbe:	e6e5      	b.n	b8c <udc_process_setup+0x68>
     dc0:	b2e9      	uxtb	r1, r5
     dc2:	0030      	movs	r0, r6
     dc4:	4b13      	ldr	r3, [pc, #76]	; (e14 <udc_process_setup+0x2f0>)
     dc6:	4798      	blx	r3
     dc8:	2800      	cmp	r0, #0
     dca:	d000      	beq.n	dce <udc_process_setup+0x2aa>
     dcc:	e6d5      	b.n	b7a <udc_process_setup+0x56>
     dce:	e6dd      	b.n	b8c <udc_process_setup+0x68>
     dd0:	200009dc 	.word	0x200009dc
     dd4:	20000666 	.word	0x20000666
     dd8:	00002bb1 	.word	0x00002bb1
     ddc:	20000670 	.word	0x20000670
     de0:	20000674 	.word	0x20000674
     de4:	00000959 	.word	0x00000959
     de8:	20000028 	.word	0x20000028
     dec:	200000f2 	.word	0x200000f2
     df0:	200000a8 	.word	0x200000a8
     df4:	200000e4 	.word	0x200000e4
     df8:	2000066c 	.word	0x2000066c
     dfc:	000028c9 	.word	0x000028c9
     e00:	20000668 	.word	0x20000668
     e04:	00000941 	.word	0x00000941
     e08:	00002ba1 	.word	0x00002ba1
     e0c:	00000aad 	.word	0x00000aad
     e10:	1fffffff 	.word	0x1fffffff
     e14:	000009ed 	.word	0x000009ed
     e18:	00000a45 	.word	0x00000a45
     e1c:	2b02      	cmp	r3, #2
     e1e:	d000      	beq.n	e22 <udc_process_setup+0x2fe>
     e20:	e6b4      	b.n	b8c <udc_process_setup+0x68>
     e22:	7863      	ldrb	r3, [r4, #1]
     e24:	2b01      	cmp	r3, #1
     e26:	d010      	beq.n	e4a <udc_process_setup+0x326>
     e28:	2b03      	cmp	r3, #3
     e2a:	d000      	beq.n	e2e <udc_process_setup+0x30a>
     e2c:	e6ae      	b.n	b8c <udc_process_setup+0x68>
     e2e:	88e3      	ldrh	r3, [r4, #6]
     e30:	2b00      	cmp	r3, #0
     e32:	d000      	beq.n	e36 <udc_process_setup+0x312>
     e34:	e6b0      	b.n	b98 <udc_process_setup+0x74>
     e36:	8863      	ldrh	r3, [r4, #2]
     e38:	2b00      	cmp	r3, #0
     e3a:	d000      	beq.n	e3e <udc_process_setup+0x31a>
     e3c:	e6ac      	b.n	b98 <udc_process_setup+0x74>
     e3e:	7920      	ldrb	r0, [r4, #4]
     e40:	4b1c      	ldr	r3, [pc, #112]	; (eb4 <udc_process_setup+0x390>)
     e42:	4798      	blx	r3
     e44:	7920      	ldrb	r0, [r4, #4]
     e46:	4b1c      	ldr	r3, [pc, #112]	; (eb8 <udc_process_setup+0x394>)
     e48:	e009      	b.n	e5e <udc_process_setup+0x33a>
     e4a:	88e3      	ldrh	r3, [r4, #6]
     e4c:	2b00      	cmp	r3, #0
     e4e:	d000      	beq.n	e52 <udc_process_setup+0x32e>
     e50:	e6a2      	b.n	b98 <udc_process_setup+0x74>
     e52:	8863      	ldrh	r3, [r4, #2]
     e54:	2b00      	cmp	r3, #0
     e56:	d000      	beq.n	e5a <udc_process_setup+0x336>
     e58:	e69e      	b.n	b98 <udc_process_setup+0x74>
     e5a:	7920      	ldrb	r0, [r4, #4]
     e5c:	4b17      	ldr	r3, [pc, #92]	; (ebc <udc_process_setup+0x398>)
     e5e:	4798      	blx	r3
     e60:	e7b2      	b.n	dc8 <udc_process_setup+0x2a4>
     e62:	4b17      	ldr	r3, [pc, #92]	; (ec0 <udc_process_setup+0x39c>)
     e64:	781b      	ldrb	r3, [r3, #0]
     e66:	2b00      	cmp	r3, #0
     e68:	d100      	bne.n	e6c <udc_process_setup+0x348>
     e6a:	e695      	b.n	b98 <udc_process_setup+0x74>
     e6c:	4b15      	ldr	r3, [pc, #84]	; (ec4 <udc_process_setup+0x3a0>)
     e6e:	7925      	ldrb	r5, [r4, #4]
     e70:	681e      	ldr	r6, [r3, #0]
     e72:	6833      	ldr	r3, [r6, #0]
     e74:	791b      	ldrb	r3, [r3, #4]
     e76:	42ab      	cmp	r3, r5
     e78:	d800      	bhi.n	e7c <udc_process_setup+0x358>
     e7a:	e68d      	b.n	b98 <udc_process_setup+0x74>
     e7c:	2100      	movs	r1, #0
     e7e:	0028      	movs	r0, r5
     e80:	4f11      	ldr	r7, [pc, #68]	; (ec8 <udc_process_setup+0x3a4>)
     e82:	47b8      	blx	r7
     e84:	2800      	cmp	r0, #0
     e86:	d100      	bne.n	e8a <udc_process_setup+0x366>
     e88:	e686      	b.n	b98 <udc_process_setup+0x74>
     e8a:	6873      	ldr	r3, [r6, #4]
     e8c:	00aa      	lsls	r2, r5, #2
     e8e:	58d6      	ldr	r6, [r2, r3]
     e90:	68f3      	ldr	r3, [r6, #12]
     e92:	4798      	blx	r3
     e94:	0001      	movs	r1, r0
     e96:	0028      	movs	r0, r5
     e98:	47b8      	blx	r7
     e9a:	2800      	cmp	r0, #0
     e9c:	d100      	bne.n	ea0 <udc_process_setup+0x37c>
     e9e:	e67b      	b.n	b98 <udc_process_setup+0x74>
     ea0:	68b3      	ldr	r3, [r6, #8]
     ea2:	4798      	blx	r3
     ea4:	2800      	cmp	r0, #0
     ea6:	d000      	beq.n	eaa <udc_process_setup+0x386>
     ea8:	e667      	b.n	b7a <udc_process_setup+0x56>
     eaa:	e675      	b.n	b98 <udc_process_setup+0x74>
     eac:	2109      	movs	r1, #9
     eae:	4d07      	ldr	r5, [pc, #28]	; (ecc <udc_process_setup+0x3a8>)
     eb0:	e6c8      	b.n	c44 <udc_process_setup+0x120>
     eb2:	46c0      	nop			; (mov r8, r8)
     eb4:	00002749 	.word	0x00002749
     eb8:	000028dd 	.word	0x000028dd
     ebc:	000029dd 	.word	0x000029dd
     ec0:	20000670 	.word	0x20000670
     ec4:	20000674 	.word	0x20000674
     ec8:	00000959 	.word	0x00000959
     ecc:	200000e8 	.word	0x200000e8

00000ed0 <cpu_irq_enter_critical>:
     ed0:	4b09      	ldr	r3, [pc, #36]	; (ef8 <cpu_irq_enter_critical+0x28>)
     ed2:	6819      	ldr	r1, [r3, #0]
     ed4:	2900      	cmp	r1, #0
     ed6:	d10b      	bne.n	ef0 <cpu_irq_enter_critical+0x20>
     ed8:	f3ef 8010 	mrs	r0, PRIMASK
     edc:	4a07      	ldr	r2, [pc, #28]	; (efc <cpu_irq_enter_critical+0x2c>)
     ede:	2800      	cmp	r0, #0
     ee0:	d105      	bne.n	eee <cpu_irq_enter_critical+0x1e>
     ee2:	b672      	cpsid	i
     ee4:	f3bf 8f5f 	dmb	sy
     ee8:	4905      	ldr	r1, [pc, #20]	; (f00 <cpu_irq_enter_critical+0x30>)
     eea:	7008      	strb	r0, [r1, #0]
     eec:	2101      	movs	r1, #1
     eee:	7011      	strb	r1, [r2, #0]
     ef0:	681a      	ldr	r2, [r3, #0]
     ef2:	3201      	adds	r2, #1
     ef4:	601a      	str	r2, [r3, #0]
     ef6:	4770      	bx	lr
     ef8:	2000067c 	.word	0x2000067c
     efc:	20000680 	.word	0x20000680
     f00:	20000110 	.word	0x20000110

00000f04 <cpu_irq_leave_critical>:
     f04:	4b08      	ldr	r3, [pc, #32]	; (f28 <cpu_irq_leave_critical+0x24>)
     f06:	681a      	ldr	r2, [r3, #0]
     f08:	3a01      	subs	r2, #1
     f0a:	601a      	str	r2, [r3, #0]
     f0c:	681b      	ldr	r3, [r3, #0]
     f0e:	2b00      	cmp	r3, #0
     f10:	d109      	bne.n	f26 <cpu_irq_leave_critical+0x22>
     f12:	4b06      	ldr	r3, [pc, #24]	; (f2c <cpu_irq_leave_critical+0x28>)
     f14:	781b      	ldrb	r3, [r3, #0]
     f16:	2b00      	cmp	r3, #0
     f18:	d005      	beq.n	f26 <cpu_irq_leave_critical+0x22>
     f1a:	2201      	movs	r2, #1
     f1c:	4b04      	ldr	r3, [pc, #16]	; (f30 <cpu_irq_leave_critical+0x2c>)
     f1e:	701a      	strb	r2, [r3, #0]
     f20:	f3bf 8f5f 	dmb	sy
     f24:	b662      	cpsie	i
     f26:	4770      	bx	lr
     f28:	2000067c 	.word	0x2000067c
     f2c:	20000680 	.word	0x20000680
     f30:	20000110 	.word	0x20000110

00000f34 <system_board_init>:
     f34:	b5f7      	push	{r0, r1, r2, r4, r5, r6, r7, lr}
     f36:	2501      	movs	r5, #1
     f38:	2700      	movs	r7, #0
     f3a:	ac01      	add	r4, sp, #4
     f3c:	4e08      	ldr	r6, [pc, #32]	; (f60 <system_board_init+0x2c>)
     f3e:	0021      	movs	r1, r4
     f40:	202a      	movs	r0, #42	; 0x2a
     f42:	7065      	strb	r5, [r4, #1]
     f44:	70a7      	strb	r7, [r4, #2]
     f46:	7025      	strb	r5, [r4, #0]
     f48:	47b0      	blx	r6
     f4a:	2280      	movs	r2, #128	; 0x80
     f4c:	4b05      	ldr	r3, [pc, #20]	; (f64 <system_board_init+0x30>)
     f4e:	00d2      	lsls	r2, r2, #3
     f50:	601a      	str	r2, [r3, #0]
     f52:	0021      	movs	r1, r4
     f54:	2002      	movs	r0, #2
     f56:	7027      	strb	r7, [r4, #0]
     f58:	7065      	strb	r5, [r4, #1]
     f5a:	47b0      	blx	r6
     f5c:	bdf7      	pop	{r0, r1, r2, r4, r5, r6, r7, pc}
     f5e:	46c0      	nop			; (mov r8, r8)
     f60:	00001055 	.word	0x00001055
     f64:	40002898 	.word	0x40002898

00000f68 <EIC_Handler>:
     f68:	2300      	movs	r3, #0
     f6a:	b570      	push	{r4, r5, r6, lr}
     f6c:	2501      	movs	r5, #1
     f6e:	4c0b      	ldr	r4, [pc, #44]	; (f9c <EIC_Handler+0x34>)
     f70:	7023      	strb	r3, [r4, #0]
     f72:	7823      	ldrb	r3, [r4, #0]
     f74:	2b0f      	cmp	r3, #15
     f76:	d900      	bls.n	f7a <EIC_Handler+0x12>
     f78:	bd70      	pop	{r4, r5, r6, pc}
     f7a:	0029      	movs	r1, r5
     f7c:	4099      	lsls	r1, r3
     f7e:	4a08      	ldr	r2, [pc, #32]	; (fa0 <EIC_Handler+0x38>)
     f80:	6950      	ldr	r0, [r2, #20]
     f82:	4208      	tst	r0, r1
     f84:	d006      	beq.n	f94 <EIC_Handler+0x2c>
     f86:	6151      	str	r1, [r2, #20]
     f88:	4a06      	ldr	r2, [pc, #24]	; (fa4 <EIC_Handler+0x3c>)
     f8a:	009b      	lsls	r3, r3, #2
     f8c:	589b      	ldr	r3, [r3, r2]
     f8e:	2b00      	cmp	r3, #0
     f90:	d000      	beq.n	f94 <EIC_Handler+0x2c>
     f92:	4798      	blx	r3
     f94:	7823      	ldrb	r3, [r4, #0]
     f96:	3301      	adds	r3, #1
     f98:	7023      	strb	r3, [r4, #0]
     f9a:	e7ea      	b.n	f72 <EIC_Handler+0xa>
     f9c:	20000759 	.word	0x20000759
     fa0:	40002400 	.word	0x40002400
     fa4:	2000075c 	.word	0x2000075c

00000fa8 <extint_is_syncing>:
     fa8:	2301      	movs	r3, #1
     faa:	4a04      	ldr	r2, [pc, #16]	; (fbc <extint_is_syncing+0x14>)
     fac:	0018      	movs	r0, r3
     fae:	6851      	ldr	r1, [r2, #4]
     fb0:	0789      	lsls	r1, r1, #30
     fb2:	d400      	bmi.n	fb6 <extint_is_syncing+0xe>
     fb4:	6850      	ldr	r0, [r2, #4]
     fb6:	4018      	ands	r0, r3
     fb8:	4770      	bx	lr
     fba:	46c0      	nop			; (mov r8, r8)
     fbc:	40002400 	.word	0x40002400

00000fc0 <_extint_enable>:
     fc0:	2302      	movs	r3, #2
     fc2:	b510      	push	{r4, lr}
     fc4:	4a04      	ldr	r2, [pc, #16]	; (fd8 <_extint_enable+0x18>)
     fc6:	7811      	ldrb	r1, [r2, #0]
     fc8:	430b      	orrs	r3, r1
     fca:	7013      	strb	r3, [r2, #0]
     fcc:	4b03      	ldr	r3, [pc, #12]	; (fdc <_extint_enable+0x1c>)
     fce:	4798      	blx	r3
     fd0:	2800      	cmp	r0, #0
     fd2:	d1fb      	bne.n	fcc <_extint_enable+0xc>
     fd4:	bd10      	pop	{r4, pc}
     fd6:	46c0      	nop			; (mov r8, r8)
     fd8:	40002400 	.word	0x40002400
     fdc:	00000fa9 	.word	0x00000fa9

00000fe0 <_system_extint_init>:
     fe0:	2380      	movs	r3, #128	; 0x80
     fe2:	b513      	push	{r0, r1, r4, lr}
     fe4:	4a13      	ldr	r2, [pc, #76]	; (1034 <_system_extint_init+0x54>)
     fe6:	009b      	lsls	r3, r3, #2
     fe8:	6951      	ldr	r1, [r2, #20]
     fea:	2003      	movs	r0, #3
     fec:	430b      	orrs	r3, r1
     fee:	6153      	str	r3, [r2, #20]
     ff0:	2300      	movs	r3, #0
     ff2:	a901      	add	r1, sp, #4
     ff4:	700b      	strb	r3, [r1, #0]
     ff6:	4b10      	ldr	r3, [pc, #64]	; (1038 <_system_extint_init+0x58>)
     ff8:	4798      	blx	r3
     ffa:	2003      	movs	r0, #3
     ffc:	4b0f      	ldr	r3, [pc, #60]	; (103c <_system_extint_init+0x5c>)
     ffe:	4798      	blx	r3
    1000:	2201      	movs	r2, #1
    1002:	4c0f      	ldr	r4, [pc, #60]	; (1040 <_system_extint_init+0x60>)
    1004:	7821      	ldrb	r1, [r4, #0]
    1006:	430a      	orrs	r2, r1
    1008:	7022      	strb	r2, [r4, #0]
    100a:	4b0e      	ldr	r3, [pc, #56]	; (1044 <_system_extint_init+0x64>)
    100c:	4798      	blx	r3
    100e:	2800      	cmp	r0, #0
    1010:	d1fb      	bne.n	100a <_system_extint_init+0x2a>
    1012:	2210      	movs	r2, #16
    1014:	7823      	ldrb	r3, [r4, #0]
    1016:	4393      	bics	r3, r2
    1018:	0002      	movs	r2, r0
    101a:	7023      	strb	r3, [r4, #0]
    101c:	4b0a      	ldr	r3, [pc, #40]	; (1048 <_system_extint_init+0x68>)
    101e:	501a      	str	r2, [r3, r0]
    1020:	3004      	adds	r0, #4
    1022:	2840      	cmp	r0, #64	; 0x40
    1024:	d1fb      	bne.n	101e <_system_extint_init+0x3e>
    1026:	2208      	movs	r2, #8
    1028:	4b08      	ldr	r3, [pc, #32]	; (104c <_system_extint_init+0x6c>)
    102a:	601a      	str	r2, [r3, #0]
    102c:	4b08      	ldr	r3, [pc, #32]	; (1050 <_system_extint_init+0x70>)
    102e:	4798      	blx	r3
    1030:	bd13      	pop	{r0, r1, r4, pc}
    1032:	46c0      	nop			; (mov r8, r8)
    1034:	40000400 	.word	0x40000400
    1038:	00001ff5 	.word	0x00001ff5
    103c:	00001f95 	.word	0x00001f95
    1040:	40002400 	.word	0x40002400
    1044:	00000fa9 	.word	0x00000fa9
    1048:	2000075c 	.word	0x2000075c
    104c:	e000e100 	.word	0xe000e100
    1050:	00000fc1 	.word	0x00000fc1

00001054 <port_pin_set_config>:
    1054:	b507      	push	{r0, r1, r2, lr}
    1056:	2280      	movs	r2, #128	; 0x80
    1058:	ab01      	add	r3, sp, #4
    105a:	701a      	strb	r2, [r3, #0]
    105c:	780a      	ldrb	r2, [r1, #0]
    105e:	705a      	strb	r2, [r3, #1]
    1060:	784a      	ldrb	r2, [r1, #1]
    1062:	709a      	strb	r2, [r3, #2]
    1064:	788a      	ldrb	r2, [r1, #2]
    1066:	0019      	movs	r1, r3
    1068:	70da      	strb	r2, [r3, #3]
    106a:	4b01      	ldr	r3, [pc, #4]	; (1070 <port_pin_set_config+0x1c>)
    106c:	4798      	blx	r3
    106e:	bd07      	pop	{r0, r1, r2, pc}
    1070:	000020cd 	.word	0x000020cd

00001074 <long_division>:
    1074:	b5f0      	push	{r4, r5, r6, r7, lr}
    1076:	2400      	movs	r4, #0
    1078:	b089      	sub	sp, #36	; 0x24
    107a:	9200      	str	r2, [sp, #0]
    107c:	9301      	str	r3, [sp, #4]
    107e:	233f      	movs	r3, #63	; 0x3f
    1080:	2600      	movs	r6, #0
    1082:	2700      	movs	r7, #0
    1084:	0025      	movs	r5, r4
    1086:	9006      	str	r0, [sp, #24]
    1088:	9107      	str	r1, [sp, #28]
    108a:	9303      	str	r3, [sp, #12]
    108c:	9a03      	ldr	r2, [sp, #12]
    108e:	4b13      	ldr	r3, [pc, #76]	; (10dc <long_division+0x68>)
    1090:	2001      	movs	r0, #1
    1092:	2100      	movs	r1, #0
    1094:	4798      	blx	r3
    1096:	19b6      	adds	r6, r6, r6
    1098:	417f      	adcs	r7, r7
    109a:	9b06      	ldr	r3, [sp, #24]
    109c:	9a07      	ldr	r2, [sp, #28]
    109e:	4003      	ands	r3, r0
    10a0:	400a      	ands	r2, r1
    10a2:	9604      	str	r6, [sp, #16]
    10a4:	9705      	str	r7, [sp, #20]
    10a6:	4313      	orrs	r3, r2
    10a8:	d003      	beq.n	10b2 <long_division+0x3e>
    10aa:	2301      	movs	r3, #1
    10ac:	4333      	orrs	r3, r6
    10ae:	001e      	movs	r6, r3
    10b0:	9f05      	ldr	r7, [sp, #20]
    10b2:	9b01      	ldr	r3, [sp, #4]
    10b4:	42bb      	cmp	r3, r7
    10b6:	d809      	bhi.n	10cc <long_division+0x58>
    10b8:	d102      	bne.n	10c0 <long_division+0x4c>
    10ba:	9b00      	ldr	r3, [sp, #0]
    10bc:	42b3      	cmp	r3, r6
    10be:	d805      	bhi.n	10cc <long_division+0x58>
    10c0:	9a00      	ldr	r2, [sp, #0]
    10c2:	9b01      	ldr	r3, [sp, #4]
    10c4:	1ab6      	subs	r6, r6, r2
    10c6:	419f      	sbcs	r7, r3
    10c8:	4304      	orrs	r4, r0
    10ca:	430d      	orrs	r5, r1
    10cc:	9b03      	ldr	r3, [sp, #12]
    10ce:	1e5a      	subs	r2, r3, #1
    10d0:	9203      	str	r2, [sp, #12]
    10d2:	d2db      	bcs.n	108c <long_division+0x18>
    10d4:	0020      	movs	r0, r4
    10d6:	0029      	movs	r1, r5
    10d8:	b009      	add	sp, #36	; 0x24
    10da:	bdf0      	pop	{r4, r5, r6, r7, pc}
    10dc:	000045f5 	.word	0x000045f5

000010e0 <_sercom_get_sync_baud_val>:
    10e0:	b510      	push	{r4, lr}
    10e2:	0849      	lsrs	r1, r1, #1
    10e4:	0004      	movs	r4, r0
    10e6:	2300      	movs	r3, #0
    10e8:	2040      	movs	r0, #64	; 0x40
    10ea:	42a1      	cmp	r1, r4
    10ec:	d201      	bcs.n	10f2 <_sercom_get_sync_baud_val+0x12>
    10ee:	bd10      	pop	{r4, pc}
    10f0:	0003      	movs	r3, r0
    10f2:	1c58      	adds	r0, r3, #1
    10f4:	1b09      	subs	r1, r1, r4
    10f6:	b280      	uxth	r0, r0
    10f8:	428c      	cmp	r4, r1
    10fa:	d9f9      	bls.n	10f0 <_sercom_get_sync_baud_val+0x10>
    10fc:	2040      	movs	r0, #64	; 0x40
    10fe:	2bff      	cmp	r3, #255	; 0xff
    1100:	d8f5      	bhi.n	10ee <_sercom_get_sync_baud_val+0xe>
    1102:	8013      	strh	r3, [r2, #0]
    1104:	2000      	movs	r0, #0
    1106:	e7f2      	b.n	10ee <_sercom_get_sync_baud_val+0xe>

00001108 <_sercom_get_async_baud_val>:
    1108:	b5f0      	push	{r4, r5, r6, r7, lr}
    110a:	b085      	sub	sp, #20
    110c:	001e      	movs	r6, r3
    110e:	ab0a      	add	r3, sp, #40	; 0x28
    1110:	000d      	movs	r5, r1
    1112:	7819      	ldrb	r1, [r3, #0]
    1114:	0003      	movs	r3, r0
    1116:	434b      	muls	r3, r1
    1118:	9203      	str	r2, [sp, #12]
    111a:	2740      	movs	r7, #64	; 0x40
    111c:	42ab      	cmp	r3, r5
    111e:	d817      	bhi.n	1150 <_sercom_get_async_baud_val+0x48>
    1120:	2e00      	cmp	r6, #0
    1122:	d118      	bne.n	1156 <_sercom_get_async_baud_val+0x4e>
    1124:	0002      	movs	r2, r0
    1126:	0033      	movs	r3, r6
    1128:	0008      	movs	r0, r1
    112a:	4c1b      	ldr	r4, [pc, #108]	; (1198 <_sercom_get_async_baud_val+0x90>)
    112c:	0031      	movs	r1, r6
    112e:	47a0      	blx	r4
    1130:	002a      	movs	r2, r5
    1132:	0001      	movs	r1, r0
    1134:	0033      	movs	r3, r6
    1136:	4c19      	ldr	r4, [pc, #100]	; (119c <_sercom_get_async_baud_val+0x94>)
    1138:	0030      	movs	r0, r6
    113a:	47a0      	blx	r4
    113c:	2200      	movs	r2, #0
    113e:	2301      	movs	r3, #1
    1140:	1a12      	subs	r2, r2, r0
    1142:	418b      	sbcs	r3, r1
    1144:	0c14      	lsrs	r4, r2, #16
    1146:	0418      	lsls	r0, r3, #16
    1148:	4304      	orrs	r4, r0
    114a:	2700      	movs	r7, #0
    114c:	9b03      	ldr	r3, [sp, #12]
    114e:	801c      	strh	r4, [r3, #0]
    1150:	0038      	movs	r0, r7
    1152:	b005      	add	sp, #20
    1154:	bdf0      	pop	{r4, r5, r6, r7, pc}
    1156:	2400      	movs	r4, #0
    1158:	2e01      	cmp	r6, #1
    115a:	d1f6      	bne.n	114a <_sercom_get_async_baud_val+0x42>
    115c:	000a      	movs	r2, r1
    115e:	0023      	movs	r3, r4
    1160:	0021      	movs	r1, r4
    1162:	4e0d      	ldr	r6, [pc, #52]	; (1198 <_sercom_get_async_baud_val+0x90>)
    1164:	47b0      	blx	r6
    1166:	9000      	str	r0, [sp, #0]
    1168:	9101      	str	r1, [sp, #4]
    116a:	000b      	movs	r3, r1
    116c:	0002      	movs	r2, r0
    116e:	0021      	movs	r1, r4
    1170:	0028      	movs	r0, r5
    1172:	4c0a      	ldr	r4, [pc, #40]	; (119c <_sercom_get_async_baud_val+0x94>)
    1174:	47a0      	blx	r4
    1176:	2380      	movs	r3, #128	; 0x80
    1178:	0006      	movs	r6, r0
    117a:	019b      	lsls	r3, r3, #6
    117c:	4298      	cmp	r0, r3
    117e:	d8e7      	bhi.n	1150 <_sercom_get_async_baud_val+0x48>
    1180:	9a00      	ldr	r2, [sp, #0]
    1182:	9b01      	ldr	r3, [sp, #4]
    1184:	0f69      	lsrs	r1, r5, #29
    1186:	00e8      	lsls	r0, r5, #3
    1188:	47a0      	blx	r4
    118a:	00f4      	lsls	r4, r6, #3
    118c:	1b04      	subs	r4, r0, r4
    118e:	b2e4      	uxtb	r4, r4
    1190:	0364      	lsls	r4, r4, #13
    1192:	4334      	orrs	r4, r6
    1194:	e7d9      	b.n	114a <_sercom_get_async_baud_val+0x42>
    1196:	46c0      	nop			; (mov r8, r8)
    1198:	0000464d 	.word	0x0000464d
    119c:	00001075 	.word	0x00001075

000011a0 <sercom_set_gclk_generator>:
    11a0:	b537      	push	{r0, r1, r2, r4, r5, lr}
    11a2:	4c0d      	ldr	r4, [pc, #52]	; (11d8 <sercom_set_gclk_generator+0x38>)
    11a4:	0005      	movs	r5, r0
    11a6:	7823      	ldrb	r3, [r4, #0]
    11a8:	2b00      	cmp	r3, #0
    11aa:	d001      	beq.n	11b0 <sercom_set_gclk_generator+0x10>
    11ac:	2900      	cmp	r1, #0
    11ae:	d00c      	beq.n	11ca <sercom_set_gclk_generator+0x2a>
    11b0:	a901      	add	r1, sp, #4
    11b2:	2011      	movs	r0, #17
    11b4:	4b09      	ldr	r3, [pc, #36]	; (11dc <sercom_set_gclk_generator+0x3c>)
    11b6:	700d      	strb	r5, [r1, #0]
    11b8:	4798      	blx	r3
    11ba:	2011      	movs	r0, #17
    11bc:	4b08      	ldr	r3, [pc, #32]	; (11e0 <sercom_set_gclk_generator+0x40>)
    11be:	4798      	blx	r3
    11c0:	2301      	movs	r3, #1
    11c2:	2000      	movs	r0, #0
    11c4:	7065      	strb	r5, [r4, #1]
    11c6:	7023      	strb	r3, [r4, #0]
    11c8:	bd3e      	pop	{r1, r2, r3, r4, r5, pc}
    11ca:	7863      	ldrb	r3, [r4, #1]
    11cc:	0008      	movs	r0, r1
    11ce:	42ab      	cmp	r3, r5
    11d0:	d0fa      	beq.n	11c8 <sercom_set_gclk_generator+0x28>
    11d2:	201d      	movs	r0, #29
    11d4:	e7f8      	b.n	11c8 <sercom_set_gclk_generator+0x28>
    11d6:	46c0      	nop			; (mov r8, r8)
    11d8:	20000681 	.word	0x20000681
    11dc:	00001ff5 	.word	0x00001ff5
    11e0:	00001f95 	.word	0x00001f95

000011e4 <_sercom_get_default_pad>:
    11e4:	4a39      	ldr	r2, [pc, #228]	; (12cc <_sercom_get_default_pad+0xe8>)
    11e6:	0003      	movs	r3, r0
    11e8:	b500      	push	{lr}
    11ea:	0008      	movs	r0, r1
    11ec:	4293      	cmp	r3, r2
    11ee:	d034      	beq.n	125a <_sercom_get_default_pad+0x76>
    11f0:	d808      	bhi.n	1204 <_sercom_get_default_pad+0x20>
    11f2:	2284      	movs	r2, #132	; 0x84
    11f4:	05d2      	lsls	r2, r2, #23
    11f6:	4293      	cmp	r3, r2
    11f8:	d014      	beq.n	1224 <_sercom_get_default_pad+0x40>
    11fa:	4a35      	ldr	r2, [pc, #212]	; (12d0 <_sercom_get_default_pad+0xec>)
    11fc:	4293      	cmp	r3, r2
    11fe:	d01f      	beq.n	1240 <_sercom_get_default_pad+0x5c>
    1200:	2300      	movs	r3, #0
    1202:	e017      	b.n	1234 <_sercom_get_default_pad+0x50>
    1204:	4a33      	ldr	r2, [pc, #204]	; (12d4 <_sercom_get_default_pad+0xf0>)
    1206:	4293      	cmp	r3, r2
    1208:	d03a      	beq.n	1280 <_sercom_get_default_pad+0x9c>
    120a:	4a33      	ldr	r2, [pc, #204]	; (12d8 <_sercom_get_default_pad+0xf4>)
    120c:	4293      	cmp	r3, r2
    120e:	d044      	beq.n	129a <_sercom_get_default_pad+0xb6>
    1210:	4a32      	ldr	r2, [pc, #200]	; (12dc <_sercom_get_default_pad+0xf8>)
    1212:	4293      	cmp	r3, r2
    1214:	d1f4      	bne.n	1200 <_sercom_get_default_pad+0x1c>
    1216:	2300      	movs	r3, #0
    1218:	2903      	cmp	r1, #3
    121a:	d80b      	bhi.n	1234 <_sercom_get_default_pad+0x50>
    121c:	f003 f860 	bl	42e0 <__gnu_thumb1_case_uqi>
    1220:	2e2c2a50 	.word	0x2e2c2a50
    1224:	2300      	movs	r3, #0
    1226:	2903      	cmp	r1, #3
    1228:	d804      	bhi.n	1234 <_sercom_get_default_pad+0x50>
    122a:	f003 f859 	bl	42e0 <__gnu_thumb1_case_uqi>
    122e:	0243      	.short	0x0243
    1230:	0705      	.short	0x0705
    1232:	4b2b      	ldr	r3, [pc, #172]	; (12e0 <_sercom_get_default_pad+0xfc>)
    1234:	0018      	movs	r0, r3
    1236:	bd00      	pop	{pc}
    1238:	4b2a      	ldr	r3, [pc, #168]	; (12e4 <_sercom_get_default_pad+0x100>)
    123a:	e7fb      	b.n	1234 <_sercom_get_default_pad+0x50>
    123c:	4b2a      	ldr	r3, [pc, #168]	; (12e8 <_sercom_get_default_pad+0x104>)
    123e:	e7f9      	b.n	1234 <_sercom_get_default_pad+0x50>
    1240:	2300      	movs	r3, #0
    1242:	2903      	cmp	r1, #3
    1244:	d8f6      	bhi.n	1234 <_sercom_get_default_pad+0x50>
    1246:	f003 f84b 	bl	42e0 <__gnu_thumb1_case_uqi>
    124a:	0237      	.short	0x0237
    124c:	0604      	.short	0x0604
    124e:	4b27      	ldr	r3, [pc, #156]	; (12ec <_sercom_get_default_pad+0x108>)
    1250:	e7f0      	b.n	1234 <_sercom_get_default_pad+0x50>
    1252:	4b27      	ldr	r3, [pc, #156]	; (12f0 <_sercom_get_default_pad+0x10c>)
    1254:	e7ee      	b.n	1234 <_sercom_get_default_pad+0x50>
    1256:	4b27      	ldr	r3, [pc, #156]	; (12f4 <_sercom_get_default_pad+0x110>)
    1258:	e7ec      	b.n	1234 <_sercom_get_default_pad+0x50>
    125a:	2300      	movs	r3, #0
    125c:	2903      	cmp	r1, #3
    125e:	d8e9      	bhi.n	1234 <_sercom_get_default_pad+0x50>
    1260:	f003 f83e 	bl	42e0 <__gnu_thumb1_case_uqi>
    1264:	0604022c 	.word	0x0604022c
    1268:	4b23      	ldr	r3, [pc, #140]	; (12f8 <_sercom_get_default_pad+0x114>)
    126a:	e7e3      	b.n	1234 <_sercom_get_default_pad+0x50>
    126c:	4b23      	ldr	r3, [pc, #140]	; (12fc <_sercom_get_default_pad+0x118>)
    126e:	e7e1      	b.n	1234 <_sercom_get_default_pad+0x50>
    1270:	4b23      	ldr	r3, [pc, #140]	; (1300 <_sercom_get_default_pad+0x11c>)
    1272:	e7df      	b.n	1234 <_sercom_get_default_pad+0x50>
    1274:	4b23      	ldr	r3, [pc, #140]	; (1304 <_sercom_get_default_pad+0x120>)
    1276:	e7dd      	b.n	1234 <_sercom_get_default_pad+0x50>
    1278:	4b23      	ldr	r3, [pc, #140]	; (1308 <_sercom_get_default_pad+0x124>)
    127a:	e7db      	b.n	1234 <_sercom_get_default_pad+0x50>
    127c:	4b23      	ldr	r3, [pc, #140]	; (130c <_sercom_get_default_pad+0x128>)
    127e:	e7d9      	b.n	1234 <_sercom_get_default_pad+0x50>
    1280:	2300      	movs	r3, #0
    1282:	2903      	cmp	r1, #3
    1284:	d8d6      	bhi.n	1234 <_sercom_get_default_pad+0x50>
    1286:	f003 f82b 	bl	42e0 <__gnu_thumb1_case_uqi>
    128a:	021d      	.short	0x021d
    128c:	0604      	.short	0x0604
    128e:	4b20      	ldr	r3, [pc, #128]	; (1310 <_sercom_get_default_pad+0x12c>)
    1290:	e7d0      	b.n	1234 <_sercom_get_default_pad+0x50>
    1292:	4b20      	ldr	r3, [pc, #128]	; (1314 <_sercom_get_default_pad+0x130>)
    1294:	e7ce      	b.n	1234 <_sercom_get_default_pad+0x50>
    1296:	4b20      	ldr	r3, [pc, #128]	; (1318 <_sercom_get_default_pad+0x134>)
    1298:	e7cc      	b.n	1234 <_sercom_get_default_pad+0x50>
    129a:	2300      	movs	r3, #0
    129c:	2903      	cmp	r1, #3
    129e:	d8c9      	bhi.n	1234 <_sercom_get_default_pad+0x50>
    12a0:	f003 f81e 	bl	42e0 <__gnu_thumb1_case_uqi>
    12a4:	06040212 	.word	0x06040212
    12a8:	4b1c      	ldr	r3, [pc, #112]	; (131c <_sercom_get_default_pad+0x138>)
    12aa:	e7c3      	b.n	1234 <_sercom_get_default_pad+0x50>
    12ac:	4b1c      	ldr	r3, [pc, #112]	; (1320 <_sercom_get_default_pad+0x13c>)
    12ae:	e7c1      	b.n	1234 <_sercom_get_default_pad+0x50>
    12b0:	4b1c      	ldr	r3, [pc, #112]	; (1324 <_sercom_get_default_pad+0x140>)
    12b2:	e7bf      	b.n	1234 <_sercom_get_default_pad+0x50>
    12b4:	4b1c      	ldr	r3, [pc, #112]	; (1328 <_sercom_get_default_pad+0x144>)
    12b6:	e7bd      	b.n	1234 <_sercom_get_default_pad+0x50>
    12b8:	2303      	movs	r3, #3
    12ba:	e7bb      	b.n	1234 <_sercom_get_default_pad+0x50>
    12bc:	4b1b      	ldr	r3, [pc, #108]	; (132c <_sercom_get_default_pad+0x148>)
    12be:	e7b9      	b.n	1234 <_sercom_get_default_pad+0x50>
    12c0:	4b1b      	ldr	r3, [pc, #108]	; (1330 <_sercom_get_default_pad+0x14c>)
    12c2:	e7b7      	b.n	1234 <_sercom_get_default_pad+0x50>
    12c4:	4b1b      	ldr	r3, [pc, #108]	; (1334 <_sercom_get_default_pad+0x150>)
    12c6:	e7b5      	b.n	1234 <_sercom_get_default_pad+0x50>
    12c8:	4b1b      	ldr	r3, [pc, #108]	; (1338 <_sercom_get_default_pad+0x154>)
    12ca:	e7b3      	b.n	1234 <_sercom_get_default_pad+0x50>
    12cc:	42000800 	.word	0x42000800
    12d0:	42000400 	.word	0x42000400
    12d4:	42001000 	.word	0x42001000
    12d8:	43000400 	.word	0x43000400
    12dc:	42000c00 	.word	0x42000c00
    12e0:	00050003 	.word	0x00050003
    12e4:	00060003 	.word	0x00060003
    12e8:	00070003 	.word	0x00070003
    12ec:	00010003 	.word	0x00010003
    12f0:	001e0003 	.word	0x001e0003
    12f4:	001f0003 	.word	0x001f0003
    12f8:	00090003 	.word	0x00090003
    12fc:	000a0003 	.word	0x000a0003
    1300:	000b0003 	.word	0x000b0003
    1304:	00110003 	.word	0x00110003
    1308:	00120003 	.word	0x00120003
    130c:	00130003 	.word	0x00130003
    1310:	000d0003 	.word	0x000d0003
    1314:	000e0003 	.word	0x000e0003
    1318:	000f0003 	.word	0x000f0003
    131c:	00170003 	.word	0x00170003
    1320:	00180003 	.word	0x00180003
    1324:	00190003 	.word	0x00190003
    1328:	00040003 	.word	0x00040003
    132c:	00080003 	.word	0x00080003
    1330:	00100003 	.word	0x00100003
    1334:	000c0003 	.word	0x000c0003
    1338:	00160003 	.word	0x00160003

0000133c <_sercom_get_sercom_inst_index>:
    133c:	b570      	push	{r4, r5, r6, lr}
    133e:	b086      	sub	sp, #24
    1340:	4669      	mov	r1, sp
    1342:	4b09      	ldr	r3, [pc, #36]	; (1368 <_sercom_get_sercom_inst_index+0x2c>)
    1344:	466a      	mov	r2, sp
    1346:	cb70      	ldmia	r3!, {r4, r5, r6}
    1348:	c170      	stmia	r1!, {r4, r5, r6}
    134a:	cb70      	ldmia	r3!, {r4, r5, r6}
    134c:	c170      	stmia	r1!, {r4, r5, r6}
    134e:	2300      	movs	r3, #0
    1350:	0099      	lsls	r1, r3, #2
    1352:	5851      	ldr	r1, [r2, r1]
    1354:	4281      	cmp	r1, r0
    1356:	d102      	bne.n	135e <_sercom_get_sercom_inst_index+0x22>
    1358:	b2d8      	uxtb	r0, r3
    135a:	b006      	add	sp, #24
    135c:	bd70      	pop	{r4, r5, r6, pc}
    135e:	3301      	adds	r3, #1
    1360:	2b06      	cmp	r3, #6
    1362:	d1f5      	bne.n	1350 <_sercom_get_sercom_inst_index+0x14>
    1364:	2000      	movs	r0, #0
    1366:	e7f8      	b.n	135a <_sercom_get_sercom_inst_index+0x1e>
    1368:	0000470c 	.word	0x0000470c

0000136c <_sercom_default_handler>:
    136c:	4770      	bx	lr
	...

00001370 <_sercom_set_handler>:
    1370:	b5f0      	push	{r4, r5, r6, r7, lr}
    1372:	4c09      	ldr	r4, [pc, #36]	; (1398 <_sercom_set_handler+0x28>)
    1374:	4a09      	ldr	r2, [pc, #36]	; (139c <_sercom_set_handler+0x2c>)
    1376:	7823      	ldrb	r3, [r4, #0]
    1378:	2b00      	cmp	r3, #0
    137a:	d109      	bne.n	1390 <_sercom_set_handler+0x20>
    137c:	001e      	movs	r6, r3
    137e:	4f08      	ldr	r7, [pc, #32]	; (13a0 <_sercom_set_handler+0x30>)
    1380:	4d08      	ldr	r5, [pc, #32]	; (13a4 <_sercom_set_handler+0x34>)
    1382:	50d7      	str	r7, [r2, r3]
    1384:	50ee      	str	r6, [r5, r3]
    1386:	3304      	adds	r3, #4
    1388:	2b18      	cmp	r3, #24
    138a:	d1fa      	bne.n	1382 <_sercom_set_handler+0x12>
    138c:	3b17      	subs	r3, #23
    138e:	7023      	strb	r3, [r4, #0]
    1390:	0080      	lsls	r0, r0, #2
    1392:	5011      	str	r1, [r2, r0]
    1394:	bdf0      	pop	{r4, r5, r6, r7, pc}
    1396:	46c0      	nop			; (mov r8, r8)
    1398:	20000683 	.word	0x20000683
    139c:	20000684 	.word	0x20000684
    13a0:	0000136d 	.word	0x0000136d
    13a4:	2000079c 	.word	0x2000079c

000013a8 <_sercom_get_interrupt_vector>:
    13a8:	b507      	push	{r0, r1, r2, lr}
    13aa:	2308      	movs	r3, #8
    13ac:	466a      	mov	r2, sp
    13ae:	7013      	strb	r3, [r2, #0]
    13b0:	3301      	adds	r3, #1
    13b2:	7053      	strb	r3, [r2, #1]
    13b4:	3301      	adds	r3, #1
    13b6:	7093      	strb	r3, [r2, #2]
    13b8:	3301      	adds	r3, #1
    13ba:	70d3      	strb	r3, [r2, #3]
    13bc:	3301      	adds	r3, #1
    13be:	7113      	strb	r3, [r2, #4]
    13c0:	3301      	adds	r3, #1
    13c2:	7153      	strb	r3, [r2, #5]
    13c4:	4b02      	ldr	r3, [pc, #8]	; (13d0 <_sercom_get_interrupt_vector+0x28>)
    13c6:	4798      	blx	r3
    13c8:	466b      	mov	r3, sp
    13ca:	5618      	ldrsb	r0, [r3, r0]
    13cc:	bd0e      	pop	{r1, r2, r3, pc}
    13ce:	46c0      	nop			; (mov r8, r8)
    13d0:	0000133d 	.word	0x0000133d

000013d4 <SERCOM0_Handler>:
    13d4:	b510      	push	{r4, lr}
    13d6:	4b02      	ldr	r3, [pc, #8]	; (13e0 <SERCOM0_Handler+0xc>)
    13d8:	2000      	movs	r0, #0
    13da:	681b      	ldr	r3, [r3, #0]
    13dc:	4798      	blx	r3
    13de:	bd10      	pop	{r4, pc}
    13e0:	20000684 	.word	0x20000684

000013e4 <SERCOM1_Handler>:
    13e4:	b510      	push	{r4, lr}
    13e6:	4b02      	ldr	r3, [pc, #8]	; (13f0 <SERCOM1_Handler+0xc>)
    13e8:	2001      	movs	r0, #1
    13ea:	685b      	ldr	r3, [r3, #4]
    13ec:	4798      	blx	r3
    13ee:	bd10      	pop	{r4, pc}
    13f0:	20000684 	.word	0x20000684

000013f4 <SERCOM2_Handler>:
    13f4:	b510      	push	{r4, lr}
    13f6:	4b02      	ldr	r3, [pc, #8]	; (1400 <SERCOM2_Handler+0xc>)
    13f8:	2002      	movs	r0, #2
    13fa:	689b      	ldr	r3, [r3, #8]
    13fc:	4798      	blx	r3
    13fe:	bd10      	pop	{r4, pc}
    1400:	20000684 	.word	0x20000684

00001404 <SERCOM3_Handler>:
    1404:	b510      	push	{r4, lr}
    1406:	4b02      	ldr	r3, [pc, #8]	; (1410 <SERCOM3_Handler+0xc>)
    1408:	2003      	movs	r0, #3
    140a:	68db      	ldr	r3, [r3, #12]
    140c:	4798      	blx	r3
    140e:	bd10      	pop	{r4, pc}
    1410:	20000684 	.word	0x20000684

00001414 <SERCOM4_Handler>:
    1414:	b510      	push	{r4, lr}
    1416:	4b02      	ldr	r3, [pc, #8]	; (1420 <SERCOM4_Handler+0xc>)
    1418:	2004      	movs	r0, #4
    141a:	691b      	ldr	r3, [r3, #16]
    141c:	4798      	blx	r3
    141e:	bd10      	pop	{r4, pc}
    1420:	20000684 	.word	0x20000684

00001424 <SERCOM5_Handler>:
    1424:	b510      	push	{r4, lr}
    1426:	4b02      	ldr	r3, [pc, #8]	; (1430 <SERCOM5_Handler+0xc>)
    1428:	2005      	movs	r0, #5
    142a:	695b      	ldr	r3, [r3, #20]
    142c:	4798      	blx	r3
    142e:	bd10      	pop	{r4, pc}
    1430:	20000684 	.word	0x20000684

00001434 <usart_init>:
    1434:	b5f0      	push	{r4, r5, r6, r7, lr}
    1436:	0007      	movs	r7, r0
    1438:	b093      	sub	sp, #76	; 0x4c
    143a:	4ba6      	ldr	r3, [pc, #664]	; (16d4 <usart_init+0x2a0>)
    143c:	6039      	str	r1, [r7, #0]
    143e:	0008      	movs	r0, r1
    1440:	0014      	movs	r4, r2
    1442:	9104      	str	r1, [sp, #16]
    1444:	4798      	blx	r3
    1446:	2301      	movs	r3, #1
    1448:	0002      	movs	r2, r0
    144a:	2805      	cmp	r0, #5
    144c:	d055      	beq.n	14fa <usart_init+0xc6>
    144e:	0005      	movs	r5, r0
    1450:	0001      	movs	r1, r0
    1452:	3512      	adds	r5, #18
    1454:	9804      	ldr	r0, [sp, #16]
    1456:	6800      	ldr	r0, [r0, #0]
    1458:	4684      	mov	ip, r0
    145a:	4666      	mov	r6, ip
    145c:	2005      	movs	r0, #5
    145e:	421e      	tst	r6, r3
    1460:	d000      	beq.n	1464 <usart_init+0x30>
    1462:	e114      	b.n	168e <usart_init+0x25a>
    1464:	9804      	ldr	r0, [sp, #16]
    1466:	6800      	ldr	r0, [r0, #0]
    1468:	4684      	mov	ip, r0
    146a:	4666      	mov	r6, ip
    146c:	201c      	movs	r0, #28
    146e:	07b6      	lsls	r6, r6, #30
    1470:	d500      	bpl.n	1474 <usart_init+0x40>
    1472:	e10c      	b.n	168e <usart_init+0x25a>
    1474:	4898      	ldr	r0, [pc, #608]	; (16d8 <usart_init+0x2a4>)
    1476:	408b      	lsls	r3, r1
    1478:	2a05      	cmp	r2, #5
    147a:	d141      	bne.n	1500 <usart_init+0xcc>
    147c:	6a02      	ldr	r2, [r0, #32]
    147e:	4313      	orrs	r3, r2
    1480:	6203      	str	r3, [r0, #32]
    1482:	0023      	movs	r3, r4
    1484:	332d      	adds	r3, #45	; 0x2d
    1486:	001e      	movs	r6, r3
    1488:	781b      	ldrb	r3, [r3, #0]
    148a:	a90c      	add	r1, sp, #48	; 0x30
    148c:	b2ed      	uxtb	r5, r5
    148e:	700b      	strb	r3, [r1, #0]
    1490:	0028      	movs	r0, r5
    1492:	4b92      	ldr	r3, [pc, #584]	; (16dc <usart_init+0x2a8>)
    1494:	4798      	blx	r3
    1496:	0028      	movs	r0, r5
    1498:	4b91      	ldr	r3, [pc, #580]	; (16e0 <usart_init+0x2ac>)
    149a:	4798      	blx	r3
    149c:	2100      	movs	r1, #0
    149e:	4b91      	ldr	r3, [pc, #580]	; (16e4 <usart_init+0x2b0>)
    14a0:	7830      	ldrb	r0, [r6, #0]
    14a2:	4798      	blx	r3
    14a4:	7ae3      	ldrb	r3, [r4, #11]
    14a6:	717b      	strb	r3, [r7, #5]
    14a8:	1d63      	adds	r3, r4, #5
    14aa:	7fdb      	ldrb	r3, [r3, #31]
    14ac:	71bb      	strb	r3, [r7, #6]
    14ae:	1da3      	adds	r3, r4, #6
    14b0:	7fdb      	ldrb	r3, [r3, #31]
    14b2:	71fb      	strb	r3, [r7, #7]
    14b4:	7ee3      	ldrb	r3, [r4, #27]
    14b6:	723b      	strb	r3, [r7, #8]
    14b8:	7f23      	ldrb	r3, [r4, #28]
    14ba:	727b      	strb	r3, [r7, #9]
    14bc:	683b      	ldr	r3, [r7, #0]
    14be:	9303      	str	r3, [sp, #12]
    14c0:	0018      	movs	r0, r3
    14c2:	4b84      	ldr	r3, [pc, #528]	; (16d4 <usart_init+0x2a0>)
    14c4:	4798      	blx	r3
    14c6:	2318      	movs	r3, #24
    14c8:	2805      	cmp	r0, #5
    14ca:	d001      	beq.n	14d0 <usart_init+0x9c>
    14cc:	0003      	movs	r3, r0
    14ce:	3312      	adds	r3, #18
    14d0:	2500      	movs	r5, #0
    14d2:	aa0e      	add	r2, sp, #56	; 0x38
    14d4:	8015      	strh	r5, [r2, #0]
    14d6:	8a22      	ldrh	r2, [r4, #16]
    14d8:	2608      	movs	r6, #8
    14da:	9202      	str	r2, [sp, #8]
    14dc:	2280      	movs	r2, #128	; 0x80
    14de:	9902      	ldr	r1, [sp, #8]
    14e0:	01d2      	lsls	r2, r2, #7
    14e2:	4291      	cmp	r1, r2
    14e4:	d01b      	beq.n	151e <usart_init+0xea>
    14e6:	d80f      	bhi.n	1508 <usart_init+0xd4>
    14e8:	2280      	movs	r2, #128	; 0x80
    14ea:	2610      	movs	r6, #16
    14ec:	0192      	lsls	r2, r2, #6
    14ee:	4291      	cmp	r1, r2
    14f0:	d100      	bne.n	14f4 <usart_init+0xc0>
    14f2:	e0cf      	b.n	1694 <usart_init+0x260>
    14f4:	2610      	movs	r6, #16
    14f6:	2500      	movs	r5, #0
    14f8:	e011      	b.n	151e <usart_init+0xea>
    14fa:	2518      	movs	r5, #24
    14fc:	0019      	movs	r1, r3
    14fe:	e7a9      	b.n	1454 <usart_init+0x20>
    1500:	69c2      	ldr	r2, [r0, #28]
    1502:	4313      	orrs	r3, r2
    1504:	61c3      	str	r3, [r0, #28]
    1506:	e7bc      	b.n	1482 <usart_init+0x4e>
    1508:	22c0      	movs	r2, #192	; 0xc0
    150a:	9902      	ldr	r1, [sp, #8]
    150c:	01d2      	lsls	r2, r2, #7
    150e:	4291      	cmp	r1, r2
    1510:	d100      	bne.n	1514 <usart_init+0xe0>
    1512:	e0be      	b.n	1692 <usart_init+0x25e>
    1514:	2280      	movs	r2, #128	; 0x80
    1516:	2603      	movs	r6, #3
    1518:	0212      	lsls	r2, r2, #8
    151a:	4291      	cmp	r1, r2
    151c:	d1ea      	bne.n	14f4 <usart_init+0xc0>
    151e:	6822      	ldr	r2, [r4, #0]
    1520:	9206      	str	r2, [sp, #24]
    1522:	68e2      	ldr	r2, [r4, #12]
    1524:	9207      	str	r2, [sp, #28]
    1526:	6962      	ldr	r2, [r4, #20]
    1528:	9208      	str	r2, [sp, #32]
    152a:	7e22      	ldrb	r2, [r4, #24]
    152c:	9209      	str	r2, [sp, #36]	; 0x24
    152e:	1de2      	adds	r2, r4, #7
    1530:	7fd2      	ldrb	r2, [r2, #31]
    1532:	920a      	str	r2, [sp, #40]	; 0x28
    1534:	6862      	ldr	r2, [r4, #4]
    1536:	9205      	str	r2, [sp, #20]
    1538:	0022      	movs	r2, r4
    153a:	9905      	ldr	r1, [sp, #20]
    153c:	3208      	adds	r2, #8
    153e:	2900      	cmp	r1, #0
    1540:	d100      	bne.n	1544 <usart_init+0x110>
    1542:	e0a9      	b.n	1698 <usart_init+0x264>
    1544:	2180      	movs	r1, #128	; 0x80
    1546:	9805      	ldr	r0, [sp, #20]
    1548:	0549      	lsls	r1, r1, #21
    154a:	4288      	cmp	r0, r1
    154c:	d10e      	bne.n	156c <usart_init+0x138>
    154e:	7fd2      	ldrb	r2, [r2, #31]
    1550:	2a00      	cmp	r2, #0
    1552:	d10b      	bne.n	156c <usart_init+0x138>
    1554:	b2d8      	uxtb	r0, r3
    1556:	4b64      	ldr	r3, [pc, #400]	; (16e8 <usart_init+0x2b4>)
    1558:	6a25      	ldr	r5, [r4, #32]
    155a:	4798      	blx	r3
    155c:	aa0e      	add	r2, sp, #56	; 0x38
    155e:	0001      	movs	r1, r0
    1560:	4b62      	ldr	r3, [pc, #392]	; (16ec <usart_init+0x2b8>)
    1562:	0028      	movs	r0, r5
    1564:	4798      	blx	r3
    1566:	2800      	cmp	r0, #0
    1568:	d000      	beq.n	156c <usart_init+0x138>
    156a:	e090      	b.n	168e <usart_init+0x25a>
    156c:	7e63      	ldrb	r3, [r4, #25]
    156e:	2b00      	cmp	r3, #0
    1570:	d002      	beq.n	1578 <usart_init+0x144>
    1572:	7ea3      	ldrb	r3, [r4, #26]
    1574:	9a03      	ldr	r2, [sp, #12]
    1576:	7393      	strb	r3, [r2, #14]
    1578:	ae0e      	add	r6, sp, #56	; 0x38
    157a:	8833      	ldrh	r3, [r6, #0]
    157c:	9a03      	ldr	r2, [sp, #12]
    157e:	8193      	strh	r3, [r2, #12]
    1580:	9a07      	ldr	r2, [sp, #28]
    1582:	9b06      	ldr	r3, [sp, #24]
    1584:	4313      	orrs	r3, r2
    1586:	9a08      	ldr	r2, [sp, #32]
    1588:	4313      	orrs	r3, r2
    158a:	9a05      	ldr	r2, [sp, #20]
    158c:	4313      	orrs	r3, r2
    158e:	9a02      	ldr	r2, [sp, #8]
    1590:	4313      	orrs	r3, r2
    1592:	9a09      	ldr	r2, [sp, #36]	; 0x24
    1594:	0212      	lsls	r2, r2, #8
    1596:	4313      	orrs	r3, r2
    1598:	9a0a      	ldr	r2, [sp, #40]	; 0x28
    159a:	0752      	lsls	r2, r2, #29
    159c:	4313      	orrs	r3, r2
    159e:	0022      	movs	r2, r4
    15a0:	3208      	adds	r2, #8
    15a2:	7fd2      	ldrb	r2, [r2, #31]
    15a4:	2a00      	cmp	r2, #0
    15a6:	d101      	bne.n	15ac <usart_init+0x178>
    15a8:	3204      	adds	r2, #4
    15aa:	4313      	orrs	r3, r2
    15ac:	7e62      	ldrb	r2, [r4, #25]
    15ae:	7f21      	ldrb	r1, [r4, #28]
    15b0:	0292      	lsls	r2, r2, #10
    15b2:	0249      	lsls	r1, r1, #9
    15b4:	430a      	orrs	r2, r1
    15b6:	7f61      	ldrb	r1, [r4, #29]
    15b8:	7ae0      	ldrb	r0, [r4, #11]
    15ba:	0209      	lsls	r1, r1, #8
    15bc:	430a      	orrs	r2, r1
    15be:	1d61      	adds	r1, r4, #5
    15c0:	7fc9      	ldrb	r1, [r1, #31]
    15c2:	0449      	lsls	r1, r1, #17
    15c4:	430a      	orrs	r2, r1
    15c6:	1da1      	adds	r1, r4, #6
    15c8:	7fc9      	ldrb	r1, [r1, #31]
    15ca:	0409      	lsls	r1, r1, #16
    15cc:	430a      	orrs	r2, r1
    15ce:	7aa1      	ldrb	r1, [r4, #10]
    15d0:	4301      	orrs	r1, r0
    15d2:	430a      	orrs	r2, r1
    15d4:	8921      	ldrh	r1, [r4, #8]
    15d6:	29ff      	cmp	r1, #255	; 0xff
    15d8:	d100      	bne.n	15dc <usart_init+0x1a8>
    15da:	e073      	b.n	16c4 <usart_init+0x290>
    15dc:	2080      	movs	r0, #128	; 0x80
    15de:	0440      	lsls	r0, r0, #17
    15e0:	4303      	orrs	r3, r0
    15e2:	430a      	orrs	r2, r1
    15e4:	0021      	movs	r1, r4
    15e6:	312c      	adds	r1, #44	; 0x2c
    15e8:	7809      	ldrb	r1, [r1, #0]
    15ea:	2900      	cmp	r1, #0
    15ec:	d103      	bne.n	15f6 <usart_init+0x1c2>
    15ee:	4940      	ldr	r1, [pc, #256]	; (16f0 <usart_init+0x2bc>)
    15f0:	7889      	ldrb	r1, [r1, #2]
    15f2:	0789      	lsls	r1, r1, #30
    15f4:	d501      	bpl.n	15fa <usart_init+0x1c6>
    15f6:	2180      	movs	r1, #128	; 0x80
    15f8:	430b      	orrs	r3, r1
    15fa:	6838      	ldr	r0, [r7, #0]
    15fc:	69c1      	ldr	r1, [r0, #28]
    15fe:	2900      	cmp	r1, #0
    1600:	d1fc      	bne.n	15fc <usart_init+0x1c8>
    1602:	9903      	ldr	r1, [sp, #12]
    1604:	604a      	str	r2, [r1, #4]
    1606:	6839      	ldr	r1, [r7, #0]
    1608:	69ca      	ldr	r2, [r1, #28]
    160a:	2a00      	cmp	r2, #0
    160c:	d1fc      	bne.n	1608 <usart_init+0x1d4>
    160e:	9903      	ldr	r1, [sp, #12]
    1610:	ad0d      	add	r5, sp, #52	; 0x34
    1612:	600b      	str	r3, [r1, #0]
    1614:	2380      	movs	r3, #128	; 0x80
    1616:	702b      	strb	r3, [r5, #0]
    1618:	6b23      	ldr	r3, [r4, #48]	; 0x30
    161a:	706a      	strb	r2, [r5, #1]
    161c:	930e      	str	r3, [sp, #56]	; 0x38
    161e:	6b63      	ldr	r3, [r4, #52]	; 0x34
    1620:	70ea      	strb	r2, [r5, #3]
    1622:	6073      	str	r3, [r6, #4]
    1624:	6ba3      	ldr	r3, [r4, #56]	; 0x38
    1626:	70aa      	strb	r2, [r5, #2]
    1628:	60b3      	str	r3, [r6, #8]
    162a:	6be3      	ldr	r3, [r4, #60]	; 0x3c
    162c:	0014      	movs	r4, r2
    162e:	60f3      	str	r3, [r6, #12]
    1630:	00a3      	lsls	r3, r4, #2
    1632:	58f0      	ldr	r0, [r6, r3]
    1634:	b2e1      	uxtb	r1, r4
    1636:	2800      	cmp	r0, #0
    1638:	d102      	bne.n	1640 <usart_init+0x20c>
    163a:	9804      	ldr	r0, [sp, #16]
    163c:	4b2d      	ldr	r3, [pc, #180]	; (16f4 <usart_init+0x2c0>)
    163e:	4798      	blx	r3
    1640:	1c43      	adds	r3, r0, #1
    1642:	d005      	beq.n	1650 <usart_init+0x21c>
    1644:	7028      	strb	r0, [r5, #0]
    1646:	0c00      	lsrs	r0, r0, #16
    1648:	b2c0      	uxtb	r0, r0
    164a:	0029      	movs	r1, r5
    164c:	4b2a      	ldr	r3, [pc, #168]	; (16f8 <usart_init+0x2c4>)
    164e:	4798      	blx	r3
    1650:	3401      	adds	r4, #1
    1652:	2c04      	cmp	r4, #4
    1654:	d1ec      	bne.n	1630 <usart_init+0x1fc>
    1656:	003b      	movs	r3, r7
    1658:	2400      	movs	r4, #0
    165a:	3330      	adds	r3, #48	; 0x30
    165c:	85fc      	strh	r4, [r7, #46]	; 0x2e
    165e:	60fc      	str	r4, [r7, #12]
    1660:	613c      	str	r4, [r7, #16]
    1662:	617c      	str	r4, [r7, #20]
    1664:	61bc      	str	r4, [r7, #24]
    1666:	61fc      	str	r4, [r7, #28]
    1668:	623c      	str	r4, [r7, #32]
    166a:	62bc      	str	r4, [r7, #40]	; 0x28
    166c:	627c      	str	r4, [r7, #36]	; 0x24
    166e:	85bc      	strh	r4, [r7, #44]	; 0x2c
    1670:	709c      	strb	r4, [r3, #2]
    1672:	701c      	strb	r4, [r3, #0]
    1674:	705c      	strb	r4, [r3, #1]
    1676:	70dc      	strb	r4, [r3, #3]
    1678:	6838      	ldr	r0, [r7, #0]
    167a:	4b16      	ldr	r3, [pc, #88]	; (16d4 <usart_init+0x2a0>)
    167c:	4798      	blx	r3
    167e:	0005      	movs	r5, r0
    1680:	4b1e      	ldr	r3, [pc, #120]	; (16fc <usart_init+0x2c8>)
    1682:	491f      	ldr	r1, [pc, #124]	; (1700 <usart_init+0x2cc>)
    1684:	4798      	blx	r3
    1686:	0020      	movs	r0, r4
    1688:	4b1e      	ldr	r3, [pc, #120]	; (1704 <usart_init+0x2d0>)
    168a:	00ad      	lsls	r5, r5, #2
    168c:	50ef      	str	r7, [r5, r3]
    168e:	b013      	add	sp, #76	; 0x4c
    1690:	bdf0      	pop	{r4, r5, r6, r7, pc}
    1692:	2608      	movs	r6, #8
    1694:	2501      	movs	r5, #1
    1696:	e742      	b.n	151e <usart_init+0xea>
    1698:	7fd2      	ldrb	r2, [r2, #31]
    169a:	2a00      	cmp	r2, #0
    169c:	d007      	beq.n	16ae <usart_init+0x27a>
    169e:	002b      	movs	r3, r5
    16a0:	9600      	str	r6, [sp, #0]
    16a2:	6aa1      	ldr	r1, [r4, #40]	; 0x28
    16a4:	6a20      	ldr	r0, [r4, #32]
    16a6:	aa0e      	add	r2, sp, #56	; 0x38
    16a8:	4d17      	ldr	r5, [pc, #92]	; (1708 <usart_init+0x2d4>)
    16aa:	47a8      	blx	r5
    16ac:	e75b      	b.n	1566 <usart_init+0x132>
    16ae:	6a22      	ldr	r2, [r4, #32]
    16b0:	b2d8      	uxtb	r0, r3
    16b2:	4b0d      	ldr	r3, [pc, #52]	; (16e8 <usart_init+0x2b4>)
    16b4:	920b      	str	r2, [sp, #44]	; 0x2c
    16b6:	4798      	blx	r3
    16b8:	9600      	str	r6, [sp, #0]
    16ba:	0001      	movs	r1, r0
    16bc:	002b      	movs	r3, r5
    16be:	aa0e      	add	r2, sp, #56	; 0x38
    16c0:	980b      	ldr	r0, [sp, #44]	; 0x2c
    16c2:	e7f1      	b.n	16a8 <usart_init+0x274>
    16c4:	7ee1      	ldrb	r1, [r4, #27]
    16c6:	2900      	cmp	r1, #0
    16c8:	d100      	bne.n	16cc <usart_init+0x298>
    16ca:	e78b      	b.n	15e4 <usart_init+0x1b0>
    16cc:	2180      	movs	r1, #128	; 0x80
    16ce:	04c9      	lsls	r1, r1, #19
    16d0:	430b      	orrs	r3, r1
    16d2:	e787      	b.n	15e4 <usart_init+0x1b0>
    16d4:	0000133d 	.word	0x0000133d
    16d8:	40000400 	.word	0x40000400
    16dc:	00001ff5 	.word	0x00001ff5
    16e0:	00001f95 	.word	0x00001f95
    16e4:	000011a1 	.word	0x000011a1
    16e8:	00002019 	.word	0x00002019
    16ec:	000010e1 	.word	0x000010e1
    16f0:	41002000 	.word	0x41002000
    16f4:	000011e5 	.word	0x000011e5
    16f8:	000020cd 	.word	0x000020cd
    16fc:	00001371 	.word	0x00001371
    1700:	00001799 	.word	0x00001799
    1704:	2000079c 	.word	0x2000079c
    1708:	00001109 	.word	0x00001109

0000170c <usart_write_wait>:
    170c:	79c2      	ldrb	r2, [r0, #7]
    170e:	231c      	movs	r3, #28
    1710:	2a00      	cmp	r2, #0
    1712:	d00a      	beq.n	172a <usart_write_wait+0x1e>
    1714:	8dc2      	ldrh	r2, [r0, #46]	; 0x2e
    1716:	3b17      	subs	r3, #23
    1718:	2a00      	cmp	r2, #0
    171a:	d106      	bne.n	172a <usart_write_wait+0x1e>
    171c:	6803      	ldr	r3, [r0, #0]
    171e:	3202      	adds	r2, #2
    1720:	8519      	strh	r1, [r3, #40]	; 0x28
    1722:	7e19      	ldrb	r1, [r3, #24]
    1724:	4211      	tst	r1, r2
    1726:	d0fc      	beq.n	1722 <usart_write_wait+0x16>
    1728:	2300      	movs	r3, #0
    172a:	0018      	movs	r0, r3
    172c:	4770      	bx	lr

0000172e <usart_read_wait>:
    172e:	b510      	push	{r4, lr}
    1730:	7982      	ldrb	r2, [r0, #6]
    1732:	231c      	movs	r3, #28
    1734:	2a00      	cmp	r2, #0
    1736:	d011      	beq.n	175c <usart_read_wait+0x2e>
    1738:	8d82      	ldrh	r2, [r0, #44]	; 0x2c
    173a:	3b17      	subs	r3, #23
    173c:	2a00      	cmp	r2, #0
    173e:	d10d      	bne.n	175c <usart_read_wait+0x2e>
    1740:	6802      	ldr	r2, [r0, #0]
    1742:	2004      	movs	r0, #4
    1744:	7e14      	ldrb	r4, [r2, #24]
    1746:	4204      	tst	r4, r0
    1748:	d008      	beq.n	175c <usart_read_wait+0x2e>
    174a:	8b53      	ldrh	r3, [r2, #26]
    174c:	b2db      	uxtb	r3, r3
    174e:	069c      	lsls	r4, r3, #26
    1750:	d01d      	beq.n	178e <usart_read_wait+0x60>
    1752:	2402      	movs	r4, #2
    1754:	4223      	tst	r3, r4
    1756:	d003      	beq.n	1760 <usart_read_wait+0x32>
    1758:	231a      	movs	r3, #26
    175a:	8354      	strh	r4, [r2, #26]
    175c:	0018      	movs	r0, r3
    175e:	bd10      	pop	{r4, pc}
    1760:	4203      	tst	r3, r0
    1762:	d002      	beq.n	176a <usart_read_wait+0x3c>
    1764:	8350      	strh	r0, [r2, #26]
    1766:	231e      	movs	r3, #30
    1768:	e7f8      	b.n	175c <usart_read_wait+0x2e>
    176a:	2001      	movs	r0, #1
    176c:	4203      	tst	r3, r0
    176e:	d002      	beq.n	1776 <usart_read_wait+0x48>
    1770:	8350      	strh	r0, [r2, #26]
    1772:	2313      	movs	r3, #19
    1774:	e7f2      	b.n	175c <usart_read_wait+0x2e>
    1776:	2010      	movs	r0, #16
    1778:	4203      	tst	r3, r0
    177a:	d002      	beq.n	1782 <usart_read_wait+0x54>
    177c:	8350      	strh	r0, [r2, #26]
    177e:	2342      	movs	r3, #66	; 0x42
    1780:	e7ec      	b.n	175c <usart_read_wait+0x2e>
    1782:	2020      	movs	r0, #32
    1784:	4203      	tst	r3, r0
    1786:	d002      	beq.n	178e <usart_read_wait+0x60>
    1788:	8350      	strh	r0, [r2, #26]
    178a:	2341      	movs	r3, #65	; 0x41
    178c:	e7e6      	b.n	175c <usart_read_wait+0x2e>
    178e:	8d13      	ldrh	r3, [r2, #40]	; 0x28
    1790:	800b      	strh	r3, [r1, #0]
    1792:	2300      	movs	r3, #0
    1794:	e7e2      	b.n	175c <usart_read_wait+0x2e>
	...

00001798 <_usart_interrupt_handler>:
    1798:	b5f8      	push	{r3, r4, r5, r6, r7, lr}
    179a:	4b58      	ldr	r3, [pc, #352]	; (18fc <_usart_interrupt_handler+0x164>)
    179c:	0080      	lsls	r0, r0, #2
    179e:	58c4      	ldr	r4, [r0, r3]
    17a0:	6825      	ldr	r5, [r4, #0]
    17a2:	69eb      	ldr	r3, [r5, #28]
    17a4:	2b00      	cmp	r3, #0
    17a6:	d1fc      	bne.n	17a2 <_usart_interrupt_handler+0xa>
    17a8:	7e2b      	ldrb	r3, [r5, #24]
    17aa:	7daf      	ldrb	r7, [r5, #22]
    17ac:	401f      	ands	r7, r3
    17ae:	0023      	movs	r3, r4
    17b0:	3330      	adds	r3, #48	; 0x30
    17b2:	781a      	ldrb	r2, [r3, #0]
    17b4:	785e      	ldrb	r6, [r3, #1]
    17b6:	2301      	movs	r3, #1
    17b8:	4016      	ands	r6, r2
    17ba:	421f      	tst	r7, r3
    17bc:	d019      	beq.n	17f2 <_usart_interrupt_handler+0x5a>
    17be:	8de2      	ldrh	r2, [r4, #46]	; 0x2e
    17c0:	2a00      	cmp	r2, #0
    17c2:	d100      	bne.n	17c6 <_usart_interrupt_handler+0x2e>
    17c4:	e072      	b.n	18ac <_usart_interrupt_handler+0x114>
    17c6:	6aa2      	ldr	r2, [r4, #40]	; 0x28
    17c8:	1c51      	adds	r1, r2, #1
    17ca:	7813      	ldrb	r3, [r2, #0]
    17cc:	62a1      	str	r1, [r4, #40]	; 0x28
    17ce:	7961      	ldrb	r1, [r4, #5]
    17d0:	b2db      	uxtb	r3, r3
    17d2:	2901      	cmp	r1, #1
    17d4:	d064      	beq.n	18a0 <_usart_interrupt_handler+0x108>
    17d6:	b29b      	uxth	r3, r3
    17d8:	05db      	lsls	r3, r3, #23
    17da:	0ddb      	lsrs	r3, r3, #23
    17dc:	852b      	strh	r3, [r5, #40]	; 0x28
    17de:	8de3      	ldrh	r3, [r4, #46]	; 0x2e
    17e0:	3b01      	subs	r3, #1
    17e2:	b29b      	uxth	r3, r3
    17e4:	85e3      	strh	r3, [r4, #46]	; 0x2e
    17e6:	2b00      	cmp	r3, #0
    17e8:	d103      	bne.n	17f2 <_usart_interrupt_handler+0x5a>
    17ea:	3301      	adds	r3, #1
    17ec:	752b      	strb	r3, [r5, #20]
    17ee:	3301      	adds	r3, #1
    17f0:	75ab      	strb	r3, [r5, #22]
    17f2:	2302      	movs	r3, #2
    17f4:	421f      	tst	r7, r3
    17f6:	d009      	beq.n	180c <_usart_interrupt_handler+0x74>
    17f8:	752b      	strb	r3, [r5, #20]
    17fa:	0023      	movs	r3, r4
    17fc:	2200      	movs	r2, #0
    17fe:	3333      	adds	r3, #51	; 0x33
    1800:	701a      	strb	r2, [r3, #0]
    1802:	07f3      	lsls	r3, r6, #31
    1804:	d502      	bpl.n	180c <_usart_interrupt_handler+0x74>
    1806:	0020      	movs	r0, r4
    1808:	68e3      	ldr	r3, [r4, #12]
    180a:	4798      	blx	r3
    180c:	2304      	movs	r3, #4
    180e:	421f      	tst	r7, r3
    1810:	d027      	beq.n	1862 <_usart_interrupt_handler+0xca>
    1812:	8da2      	ldrh	r2, [r4, #44]	; 0x2c
    1814:	2a00      	cmp	r2, #0
    1816:	d100      	bne.n	181a <_usart_interrupt_handler+0x82>
    1818:	e06d      	b.n	18f6 <_usart_interrupt_handler+0x15e>
    181a:	8b6b      	ldrh	r3, [r5, #26]
    181c:	b2db      	uxtb	r3, r3
    181e:	071a      	lsls	r2, r3, #28
    1820:	d446      	bmi.n	18b0 <_usart_interrupt_handler+0x118>
    1822:	223f      	movs	r2, #63	; 0x3f
    1824:	4013      	ands	r3, r2
    1826:	d045      	beq.n	18b4 <_usart_interrupt_handler+0x11c>
    1828:	2202      	movs	r2, #2
    182a:	211a      	movs	r1, #26
    182c:	4213      	tst	r3, r2
    182e:	d10f      	bne.n	1850 <_usart_interrupt_handler+0xb8>
    1830:	2204      	movs	r2, #4
    1832:	211e      	movs	r1, #30
    1834:	4213      	tst	r3, r2
    1836:	d10b      	bne.n	1850 <_usart_interrupt_handler+0xb8>
    1838:	2201      	movs	r2, #1
    183a:	2113      	movs	r1, #19
    183c:	4213      	tst	r3, r2
    183e:	d107      	bne.n	1850 <_usart_interrupt_handler+0xb8>
    1840:	2210      	movs	r2, #16
    1842:	2142      	movs	r1, #66	; 0x42
    1844:	4213      	tst	r3, r2
    1846:	d103      	bne.n	1850 <_usart_interrupt_handler+0xb8>
    1848:	2220      	movs	r2, #32
    184a:	4213      	tst	r3, r2
    184c:	d004      	beq.n	1858 <_usart_interrupt_handler+0xc0>
    184e:	2141      	movs	r1, #65	; 0x41
    1850:	0023      	movs	r3, r4
    1852:	3332      	adds	r3, #50	; 0x32
    1854:	7019      	strb	r1, [r3, #0]
    1856:	836a      	strh	r2, [r5, #26]
    1858:	0773      	lsls	r3, r6, #29
    185a:	d502      	bpl.n	1862 <_usart_interrupt_handler+0xca>
    185c:	0020      	movs	r0, r4
    185e:	6963      	ldr	r3, [r4, #20]
    1860:	4798      	blx	r3
    1862:	2310      	movs	r3, #16
    1864:	421f      	tst	r7, r3
    1866:	d006      	beq.n	1876 <_usart_interrupt_handler+0xde>
    1868:	752b      	strb	r3, [r5, #20]
    186a:	762b      	strb	r3, [r5, #24]
    186c:	421e      	tst	r6, r3
    186e:	d002      	beq.n	1876 <_usart_interrupt_handler+0xde>
    1870:	0020      	movs	r0, r4
    1872:	69e3      	ldr	r3, [r4, #28]
    1874:	4798      	blx	r3
    1876:	2320      	movs	r3, #32
    1878:	421f      	tst	r7, r3
    187a:	d006      	beq.n	188a <_usart_interrupt_handler+0xf2>
    187c:	752b      	strb	r3, [r5, #20]
    187e:	762b      	strb	r3, [r5, #24]
    1880:	0733      	lsls	r3, r6, #28
    1882:	d502      	bpl.n	188a <_usart_interrupt_handler+0xf2>
    1884:	0020      	movs	r0, r4
    1886:	69a3      	ldr	r3, [r4, #24]
    1888:	4798      	blx	r3
    188a:	2308      	movs	r3, #8
    188c:	421f      	tst	r7, r3
    188e:	d006      	beq.n	189e <_usart_interrupt_handler+0x106>
    1890:	752b      	strb	r3, [r5, #20]
    1892:	762b      	strb	r3, [r5, #24]
    1894:	06b3      	lsls	r3, r6, #26
    1896:	d502      	bpl.n	189e <_usart_interrupt_handler+0x106>
    1898:	6a23      	ldr	r3, [r4, #32]
    189a:	0020      	movs	r0, r4
    189c:	4798      	blx	r3
    189e:	bdf8      	pop	{r3, r4, r5, r6, r7, pc}
    18a0:	7851      	ldrb	r1, [r2, #1]
    18a2:	3202      	adds	r2, #2
    18a4:	0209      	lsls	r1, r1, #8
    18a6:	430b      	orrs	r3, r1
    18a8:	62a2      	str	r2, [r4, #40]	; 0x28
    18aa:	e795      	b.n	17d8 <_usart_interrupt_handler+0x40>
    18ac:	752b      	strb	r3, [r5, #20]
    18ae:	e7a0      	b.n	17f2 <_usart_interrupt_handler+0x5a>
    18b0:	2237      	movs	r2, #55	; 0x37
    18b2:	e7b7      	b.n	1824 <_usart_interrupt_handler+0x8c>
    18b4:	8d2b      	ldrh	r3, [r5, #40]	; 0x28
    18b6:	6a61      	ldr	r1, [r4, #36]	; 0x24
    18b8:	05db      	lsls	r3, r3, #23
    18ba:	0ddb      	lsrs	r3, r3, #23
    18bc:	b2da      	uxtb	r2, r3
    18be:	700a      	strb	r2, [r1, #0]
    18c0:	6a62      	ldr	r2, [r4, #36]	; 0x24
    18c2:	1c51      	adds	r1, r2, #1
    18c4:	6261      	str	r1, [r4, #36]	; 0x24
    18c6:	7961      	ldrb	r1, [r4, #5]
    18c8:	2901      	cmp	r1, #1
    18ca:	d104      	bne.n	18d6 <_usart_interrupt_handler+0x13e>
    18cc:	0a1b      	lsrs	r3, r3, #8
    18ce:	7053      	strb	r3, [r2, #1]
    18d0:	6a63      	ldr	r3, [r4, #36]	; 0x24
    18d2:	3301      	adds	r3, #1
    18d4:	6263      	str	r3, [r4, #36]	; 0x24
    18d6:	8da3      	ldrh	r3, [r4, #44]	; 0x2c
    18d8:	3b01      	subs	r3, #1
    18da:	b29b      	uxth	r3, r3
    18dc:	85a3      	strh	r3, [r4, #44]	; 0x2c
    18de:	2b00      	cmp	r3, #0
    18e0:	d1bf      	bne.n	1862 <_usart_interrupt_handler+0xca>
    18e2:	2204      	movs	r2, #4
    18e4:	752a      	strb	r2, [r5, #20]
    18e6:	0022      	movs	r2, r4
    18e8:	3232      	adds	r2, #50	; 0x32
    18ea:	7013      	strb	r3, [r2, #0]
    18ec:	07b3      	lsls	r3, r6, #30
    18ee:	d5b8      	bpl.n	1862 <_usart_interrupt_handler+0xca>
    18f0:	0020      	movs	r0, r4
    18f2:	6923      	ldr	r3, [r4, #16]
    18f4:	e7b4      	b.n	1860 <_usart_interrupt_handler+0xc8>
    18f6:	752b      	strb	r3, [r5, #20]
    18f8:	e7b3      	b.n	1862 <_usart_interrupt_handler+0xca>
    18fa:	46c0      	nop			; (mov r8, r8)
    18fc:	2000079c 	.word	0x2000079c

00001900 <_system_dfll_wait_for_sync>:
    1900:	2380      	movs	r3, #128	; 0x80
    1902:	4903      	ldr	r1, [pc, #12]	; (1910 <_system_dfll_wait_for_sync+0x10>)
    1904:	005b      	lsls	r3, r3, #1
    1906:	68ca      	ldr	r2, [r1, #12]
    1908:	421a      	tst	r2, r3
    190a:	d0fc      	beq.n	1906 <_system_dfll_wait_for_sync+0x6>
    190c:	4770      	bx	lr
    190e:	46c0      	nop			; (mov r8, r8)
    1910:	40000c00 	.word	0x40000c00

00001914 <system_switch_performance_level>:
    1914:	2380      	movs	r3, #128	; 0x80
    1916:	05db      	lsls	r3, r3, #23
    1918:	789a      	ldrb	r2, [r3, #2]
    191a:	4282      	cmp	r2, r0
    191c:	d102      	bne.n	1924 <system_switch_performance_level+0x10>
    191e:	2100      	movs	r1, #0
    1920:	0008      	movs	r0, r1
    1922:	4770      	bx	lr
    1924:	789a      	ldrb	r2, [r3, #2]
    1926:	2117      	movs	r1, #23
    1928:	b252      	sxtb	r2, r2
    192a:	2a00      	cmp	r2, #0
    192c:	dbf8      	blt.n	1920 <system_switch_performance_level+0xc>
    192e:	2201      	movs	r2, #1
    1930:	719a      	strb	r2, [r3, #6]
    1932:	7098      	strb	r0, [r3, #2]
    1934:	799a      	ldrb	r2, [r3, #6]
    1936:	2a00      	cmp	r2, #0
    1938:	d0fc      	beq.n	1934 <system_switch_performance_level+0x20>
    193a:	e7f0      	b.n	191e <system_switch_performance_level+0xa>

0000193c <system_clock_source_get_hz>:
    193c:	b570      	push	{r4, r5, r6, lr}
    193e:	2808      	cmp	r0, #8
    1940:	d806      	bhi.n	1950 <system_clock_source_get_hz+0x14>
    1942:	f002 fccd 	bl	42e0 <__gnu_thumb1_case_uqi>
    1946:	0508      	.short	0x0508
    1948:	13303005 	.word	0x13303005
    194c:	160b      	.short	0x160b
    194e:	28          	.byte	0x28
    194f:	00          	.byte	0x00
    1950:	2400      	movs	r4, #0
    1952:	0020      	movs	r0, r4
    1954:	bd70      	pop	{r4, r5, r6, pc}
    1956:	4b16      	ldr	r3, [pc, #88]	; (19b0 <system_clock_source_get_hz+0x74>)
    1958:	691c      	ldr	r4, [r3, #16]
    195a:	e7fa      	b.n	1952 <system_clock_source_get_hz+0x16>
    195c:	4b15      	ldr	r3, [pc, #84]	; (19b4 <system_clock_source_get_hz+0x78>)
    195e:	7d1c      	ldrb	r4, [r3, #20]
    1960:	0724      	lsls	r4, r4, #28
    1962:	0fa4      	lsrs	r4, r4, #30
    1964:	1c60      	adds	r0, r4, #1
    1966:	4c14      	ldr	r4, [pc, #80]	; (19b8 <system_clock_source_get_hz+0x7c>)
    1968:	4344      	muls	r4, r0
    196a:	e7f2      	b.n	1952 <system_clock_source_get_hz+0x16>
    196c:	4b10      	ldr	r3, [pc, #64]	; (19b0 <system_clock_source_get_hz+0x74>)
    196e:	695c      	ldr	r4, [r3, #20]
    1970:	e7ef      	b.n	1952 <system_clock_source_get_hz+0x16>
    1972:	4d0f      	ldr	r5, [pc, #60]	; (19b0 <system_clock_source_get_hz+0x74>)
    1974:	2400      	movs	r4, #0
    1976:	682b      	ldr	r3, [r5, #0]
    1978:	079b      	lsls	r3, r3, #30
    197a:	d5ea      	bpl.n	1952 <system_clock_source_get_hz+0x16>
    197c:	4b0f      	ldr	r3, [pc, #60]	; (19bc <system_clock_source_get_hz+0x80>)
    197e:	4798      	blx	r3
    1980:	2224      	movs	r2, #36	; 0x24
    1982:	682b      	ldr	r3, [r5, #0]
    1984:	4013      	ands	r3, r2
    1986:	2b04      	cmp	r3, #4
    1988:	d110      	bne.n	19ac <system_clock_source_get_hz+0x70>
    198a:	0020      	movs	r0, r4
    198c:	4b0c      	ldr	r3, [pc, #48]	; (19c0 <system_clock_source_get_hz+0x84>)
    198e:	4798      	blx	r3
    1990:	68ac      	ldr	r4, [r5, #8]
    1992:	b2a4      	uxth	r4, r4
    1994:	e7e8      	b.n	1968 <system_clock_source_get_hz+0x2c>
    1996:	4b0b      	ldr	r3, [pc, #44]	; (19c4 <system_clock_source_get_hz+0x88>)
    1998:	2400      	movs	r4, #0
    199a:	781b      	ldrb	r3, [r3, #0]
    199c:	079b      	lsls	r3, r3, #30
    199e:	d5d8      	bpl.n	1952 <system_clock_source_get_hz+0x16>
    19a0:	4b03      	ldr	r3, [pc, #12]	; (19b0 <system_clock_source_get_hz+0x74>)
    19a2:	68dc      	ldr	r4, [r3, #12]
    19a4:	e7d5      	b.n	1952 <system_clock_source_get_hz+0x16>
    19a6:	2480      	movs	r4, #128	; 0x80
    19a8:	0224      	lsls	r4, r4, #8
    19aa:	e7d2      	b.n	1952 <system_clock_source_get_hz+0x16>
    19ac:	4c06      	ldr	r4, [pc, #24]	; (19c8 <system_clock_source_get_hz+0x8c>)
    19ae:	e7d0      	b.n	1952 <system_clock_source_get_hz+0x16>
    19b0:	2000069c 	.word	0x2000069c
    19b4:	40000c00 	.word	0x40000c00
    19b8:	003d0900 	.word	0x003d0900
    19bc:	00001901 	.word	0x00001901
    19c0:	00002019 	.word	0x00002019
    19c4:	40000c28 	.word	0x40000c28
    19c8:	02dc6c00 	.word	0x02dc6c00

000019cc <system_clock_source_osc16m_set_config>:
    19cc:	b530      	push	{r4, r5, lr}
    19ce:	2503      	movs	r5, #3
    19d0:	490a      	ldr	r1, [pc, #40]	; (19fc <system_clock_source_osc16m_set_config+0x30>)
    19d2:	7884      	ldrb	r4, [r0, #2]
    19d4:	7842      	ldrb	r2, [r0, #1]
    19d6:	7800      	ldrb	r0, [r0, #0]
    19d8:	7d0b      	ldrb	r3, [r1, #20]
    19da:	4028      	ands	r0, r5
    19dc:	3509      	adds	r5, #9
    19de:	43ab      	bics	r3, r5
    19e0:	0080      	lsls	r0, r0, #2
    19e2:	4303      	orrs	r3, r0
    19e4:	2001      	movs	r0, #1
    19e6:	4002      	ands	r2, r0
    19e8:	303f      	adds	r0, #63	; 0x3f
    19ea:	0192      	lsls	r2, r2, #6
    19ec:	4383      	bics	r3, r0
    19ee:	4313      	orrs	r3, r2
    19f0:	227f      	movs	r2, #127	; 0x7f
    19f2:	01e4      	lsls	r4, r4, #7
    19f4:	4013      	ands	r3, r2
    19f6:	4323      	orrs	r3, r4
    19f8:	750b      	strb	r3, [r1, #20]
    19fa:	bd30      	pop	{r4, r5, pc}
    19fc:	40000c00 	.word	0x40000c00

00001a00 <system_clock_source_xosc32k_set_config>:
    1a00:	b5f7      	push	{r0, r1, r2, r4, r5, r6, r7, lr}
    1a02:	4b1e      	ldr	r3, [pc, #120]	; (1a7c <system_clock_source_xosc32k_set_config+0x7c>)
    1a04:	7842      	ldrb	r2, [r0, #1]
    1a06:	7807      	ldrb	r7, [r0, #0]
    1a08:	469c      	mov	ip, r3
    1a0a:	695b      	ldr	r3, [r3, #20]
    1a0c:	9201      	str	r2, [sp, #4]
    1a0e:	427a      	negs	r2, r7
    1a10:	4157      	adcs	r7, r2
    1a12:	7a82      	ldrb	r2, [r0, #10]
    1a14:	7885      	ldrb	r5, [r0, #2]
    1a16:	78c6      	ldrb	r6, [r0, #3]
    1a18:	7a41      	ldrb	r1, [r0, #9]
    1a1a:	7a04      	ldrb	r4, [r0, #8]
    1a1c:	9200      	str	r2, [sp, #0]
    1a1e:	6840      	ldr	r0, [r0, #4]
    1a20:	4a17      	ldr	r2, [pc, #92]	; (1a80 <system_clock_source_xosc32k_set_config+0x80>)
    1a22:	6150      	str	r0, [r2, #20]
    1a24:	00b8      	lsls	r0, r7, #2
    1a26:	2704      	movs	r7, #4
    1a28:	2201      	movs	r2, #1
    1a2a:	43bb      	bics	r3, r7
    1a2c:	4318      	orrs	r0, r3
    1a2e:	2308      	movs	r3, #8
    1a30:	4016      	ands	r6, r2
    1a32:	4398      	bics	r0, r3
    1a34:	00f6      	lsls	r6, r6, #3
    1a36:	4306      	orrs	r6, r0
    1a38:	4015      	ands	r5, r2
    1a3a:	012f      	lsls	r7, r5, #4
    1a3c:	0035      	movs	r5, r6
    1a3e:	18db      	adds	r3, r3, r3
    1a40:	439d      	bics	r5, r3
    1a42:	433d      	orrs	r5, r7
    1a44:	4014      	ands	r4, r2
    1a46:	01a6      	lsls	r6, r4, #6
    1a48:	002c      	movs	r4, r5
    1a4a:	4011      	ands	r1, r2
    1a4c:	3330      	adds	r3, #48	; 0x30
    1a4e:	439c      	bics	r4, r3
    1a50:	01cb      	lsls	r3, r1, #7
    1a52:	2180      	movs	r1, #128	; 0x80
    1a54:	4334      	orrs	r4, r6
    1a56:	438c      	bics	r4, r1
    1a58:	0021      	movs	r1, r4
    1a5a:	4319      	orrs	r1, r3
    1a5c:	2307      	movs	r3, #7
    1a5e:	9801      	ldr	r0, [sp, #4]
    1a60:	4c08      	ldr	r4, [pc, #32]	; (1a84 <system_clock_source_xosc32k_set_config+0x84>)
    1a62:	4003      	ands	r3, r0
    1a64:	021b      	lsls	r3, r3, #8
    1a66:	4021      	ands	r1, r4
    1a68:	4319      	orrs	r1, r3
    1a6a:	9b00      	ldr	r3, [sp, #0]
    1a6c:	401a      	ands	r2, r3
    1a6e:	0313      	lsls	r3, r2, #12
    1a70:	4a05      	ldr	r2, [pc, #20]	; (1a88 <system_clock_source_xosc32k_set_config+0x88>)
    1a72:	400a      	ands	r2, r1
    1a74:	431a      	orrs	r2, r3
    1a76:	4663      	mov	r3, ip
    1a78:	615a      	str	r2, [r3, #20]
    1a7a:	bdf7      	pop	{r0, r1, r2, r4, r5, r6, r7, pc}
    1a7c:	40001000 	.word	0x40001000
    1a80:	2000069c 	.word	0x2000069c
    1a84:	fffff8ff 	.word	0xfffff8ff
    1a88:	ffffefff 	.word	0xffffefff

00001a8c <system_clock_source_dfll_set_config>:
    1a8c:	b510      	push	{r4, lr}
    1a8e:	7a83      	ldrb	r3, [r0, #10]
    1a90:	8982      	ldrh	r2, [r0, #12]
    1a92:	069b      	lsls	r3, r3, #26
    1a94:	0592      	lsls	r2, r2, #22
    1a96:	0d92      	lsrs	r2, r2, #22
    1a98:	0c1b      	lsrs	r3, r3, #16
    1a9a:	4313      	orrs	r3, r2
    1a9c:	4a18      	ldr	r2, [pc, #96]	; (1b00 <system_clock_source_dfll_set_config+0x74>)
    1a9e:	6053      	str	r3, [r2, #4]
    1aa0:	7a41      	ldrb	r1, [r0, #9]
    1aa2:	7a03      	ldrb	r3, [r0, #8]
    1aa4:	88c4      	ldrh	r4, [r0, #6]
    1aa6:	430b      	orrs	r3, r1
    1aa8:	8881      	ldrh	r1, [r0, #4]
    1aaa:	4321      	orrs	r1, r4
    1aac:	430b      	orrs	r3, r1
    1aae:	7841      	ldrb	r1, [r0, #1]
    1ab0:	7804      	ldrb	r4, [r0, #0]
    1ab2:	01c9      	lsls	r1, r1, #7
    1ab4:	430b      	orrs	r3, r1
    1ab6:	7881      	ldrb	r1, [r0, #2]
    1ab8:	0189      	lsls	r1, r1, #6
    1aba:	430b      	orrs	r3, r1
    1abc:	6013      	str	r3, [r2, #0]
    1abe:	2c04      	cmp	r4, #4
    1ac0:	d10d      	bne.n	1ade <system_clock_source_dfll_set_config+0x52>
    1ac2:	7b83      	ldrb	r3, [r0, #14]
    1ac4:	8a41      	ldrh	r1, [r0, #18]
    1ac6:	069b      	lsls	r3, r3, #26
    1ac8:	430b      	orrs	r3, r1
    1aca:	8a01      	ldrh	r1, [r0, #16]
    1acc:	480d      	ldr	r0, [pc, #52]	; (1b04 <system_clock_source_dfll_set_config+0x78>)
    1ace:	0409      	lsls	r1, r1, #16
    1ad0:	4001      	ands	r1, r0
    1ad2:	430b      	orrs	r3, r1
    1ad4:	6093      	str	r3, [r2, #8]
    1ad6:	6813      	ldr	r3, [r2, #0]
    1ad8:	431c      	orrs	r4, r3
    1ada:	6014      	str	r4, [r2, #0]
    1adc:	bd10      	pop	{r4, pc}
    1ade:	2c20      	cmp	r4, #32
    1ae0:	d1fc      	bne.n	1adc <system_clock_source_dfll_set_config+0x50>
    1ae2:	7b83      	ldrb	r3, [r0, #14]
    1ae4:	8a41      	ldrh	r1, [r0, #18]
    1ae6:	069b      	lsls	r3, r3, #26
    1ae8:	430b      	orrs	r3, r1
    1aea:	8a01      	ldrh	r1, [r0, #16]
    1aec:	4805      	ldr	r0, [pc, #20]	; (1b04 <system_clock_source_dfll_set_config+0x78>)
    1aee:	0409      	lsls	r1, r1, #16
    1af0:	4001      	ands	r1, r0
    1af2:	430b      	orrs	r3, r1
    1af4:	6093      	str	r3, [r2, #8]
    1af6:	6811      	ldr	r1, [r2, #0]
    1af8:	4b03      	ldr	r3, [pc, #12]	; (1b08 <system_clock_source_dfll_set_config+0x7c>)
    1afa:	430b      	orrs	r3, r1
    1afc:	6013      	str	r3, [r2, #0]
    1afe:	e7ed      	b.n	1adc <system_clock_source_dfll_set_config+0x50>
    1b00:	2000069c 	.word	0x2000069c
    1b04:	03ff0000 	.word	0x03ff0000
    1b08:	00000424 	.word	0x00000424

00001b0c <system_clock_source_enable>:
    1b0c:	b5f8      	push	{r3, r4, r5, r6, r7, lr}
    1b0e:	2808      	cmp	r0, #8
    1b10:	d83f      	bhi.n	1b92 <system_clock_source_enable+0x86>
    1b12:	f002 fbe5 	bl	42e0 <__gnu_thumb1_case_uqi>
    1b16:	3e12      	.short	0x3e12
    1b18:	180c0a3e 	.word	0x180c0a3e
    1b1c:	1e05      	.short	0x1e05
    1b1e:	34          	.byte	0x34
    1b1f:	00          	.byte	0x00
    1b20:	2302      	movs	r3, #2
    1b22:	4a1d      	ldr	r2, [pc, #116]	; (1b98 <system_clock_source_enable+0x8c>)
    1b24:	7d11      	ldrb	r1, [r2, #20]
    1b26:	430b      	orrs	r3, r1
    1b28:	7513      	strb	r3, [r2, #20]
    1b2a:	2000      	movs	r0, #0
    1b2c:	e030      	b.n	1b90 <system_clock_source_enable+0x84>
    1b2e:	2302      	movs	r3, #2
    1b30:	4a1a      	ldr	r2, [pc, #104]	; (1b9c <system_clock_source_enable+0x90>)
    1b32:	6991      	ldr	r1, [r2, #24]
    1b34:	430b      	orrs	r3, r1
    1b36:	6193      	str	r3, [r2, #24]
    1b38:	e7f7      	b.n	1b2a <system_clock_source_enable+0x1e>
    1b3a:	2302      	movs	r3, #2
    1b3c:	4a16      	ldr	r2, [pc, #88]	; (1b98 <system_clock_source_enable+0x8c>)
    1b3e:	8a11      	ldrh	r1, [r2, #16]
    1b40:	430b      	orrs	r3, r1
    1b42:	8213      	strh	r3, [r2, #16]
    1b44:	e7f1      	b.n	1b2a <system_clock_source_enable+0x1e>
    1b46:	2302      	movs	r3, #2
    1b48:	4a14      	ldr	r2, [pc, #80]	; (1b9c <system_clock_source_enable+0x90>)
    1b4a:	6951      	ldr	r1, [r2, #20]
    1b4c:	430b      	orrs	r3, r1
    1b4e:	6153      	str	r3, [r2, #20]
    1b50:	e7eb      	b.n	1b2a <system_clock_source_enable+0x1e>
    1b52:	2402      	movs	r4, #2
    1b54:	4e12      	ldr	r6, [pc, #72]	; (1ba0 <system_clock_source_enable+0x94>)
    1b56:	4d10      	ldr	r5, [pc, #64]	; (1b98 <system_clock_source_enable+0x8c>)
    1b58:	6833      	ldr	r3, [r6, #0]
    1b5a:	4f12      	ldr	r7, [pc, #72]	; (1ba4 <system_clock_source_enable+0x98>)
    1b5c:	4323      	orrs	r3, r4
    1b5e:	6033      	str	r3, [r6, #0]
    1b60:	832c      	strh	r4, [r5, #24]
    1b62:	47b8      	blx	r7
    1b64:	68b3      	ldr	r3, [r6, #8]
    1b66:	622b      	str	r3, [r5, #32]
    1b68:	832c      	strh	r4, [r5, #24]
    1b6a:	2400      	movs	r4, #0
    1b6c:	47b8      	blx	r7
    1b6e:	6873      	ldr	r3, [r6, #4]
    1b70:	61eb      	str	r3, [r5, #28]
    1b72:	832c      	strh	r4, [r5, #24]
    1b74:	47b8      	blx	r7
    1b76:	6833      	ldr	r3, [r6, #0]
    1b78:	b29b      	uxth	r3, r3
    1b7a:	832b      	strh	r3, [r5, #24]
    1b7c:	e7d5      	b.n	1b2a <system_clock_source_enable+0x1e>
    1b7e:	2302      	movs	r3, #2
    1b80:	4909      	ldr	r1, [pc, #36]	; (1ba8 <system_clock_source_enable+0x9c>)
    1b82:	780a      	ldrb	r2, [r1, #0]
    1b84:	431a      	orrs	r2, r3
    1b86:	700a      	strb	r2, [r1, #0]
    1b88:	4a08      	ldr	r2, [pc, #32]	; (1bac <system_clock_source_enable+0xa0>)
    1b8a:	7810      	ldrb	r0, [r2, #0]
    1b8c:	4018      	ands	r0, r3
    1b8e:	d1fc      	bne.n	1b8a <system_clock_source_enable+0x7e>
    1b90:	bdf8      	pop	{r3, r4, r5, r6, r7, pc}
    1b92:	2017      	movs	r0, #23
    1b94:	e7fc      	b.n	1b90 <system_clock_source_enable+0x84>
    1b96:	46c0      	nop			; (mov r8, r8)
    1b98:	40000c00 	.word	0x40000c00
    1b9c:	40001000 	.word	0x40001000
    1ba0:	2000069c 	.word	0x2000069c
    1ba4:	00001901 	.word	0x00001901
    1ba8:	40000c28 	.word	0x40000c28
    1bac:	40000c38 	.word	0x40000c38

00001bb0 <system_clock_source_disable>:
    1bb0:	b500      	push	{lr}
    1bb2:	2808      	cmp	r0, #8
    1bb4:	d82f      	bhi.n	1c16 <system_clock_source_disable+0x66>
    1bb6:	f002 fb93 	bl	42e0 <__gnu_thumb1_case_uqi>
    1bba:	2e12      	.short	0x2e12
    1bbc:	180c2e2e 	.word	0x180c2e2e
    1bc0:	1e05      	.short	0x1e05
    1bc2:	28          	.byte	0x28
    1bc3:	00          	.byte	0x00
    1bc4:	2102      	movs	r1, #2
    1bc6:	4a15      	ldr	r2, [pc, #84]	; (1c1c <system_clock_source_disable+0x6c>)
    1bc8:	7d13      	ldrb	r3, [r2, #20]
    1bca:	438b      	bics	r3, r1
    1bcc:	7513      	strb	r3, [r2, #20]
    1bce:	2000      	movs	r0, #0
    1bd0:	bd00      	pop	{pc}
    1bd2:	2102      	movs	r1, #2
    1bd4:	4a12      	ldr	r2, [pc, #72]	; (1c20 <system_clock_source_disable+0x70>)
    1bd6:	6993      	ldr	r3, [r2, #24]
    1bd8:	438b      	bics	r3, r1
    1bda:	6193      	str	r3, [r2, #24]
    1bdc:	e7f7      	b.n	1bce <system_clock_source_disable+0x1e>
    1bde:	2102      	movs	r1, #2
    1be0:	4a0e      	ldr	r2, [pc, #56]	; (1c1c <system_clock_source_disable+0x6c>)
    1be2:	8a13      	ldrh	r3, [r2, #16]
    1be4:	438b      	bics	r3, r1
    1be6:	8213      	strh	r3, [r2, #16]
    1be8:	e7f1      	b.n	1bce <system_clock_source_disable+0x1e>
    1bea:	2102      	movs	r1, #2
    1bec:	4a0c      	ldr	r2, [pc, #48]	; (1c20 <system_clock_source_disable+0x70>)
    1bee:	6953      	ldr	r3, [r2, #20]
    1bf0:	438b      	bics	r3, r1
    1bf2:	6153      	str	r3, [r2, #20]
    1bf4:	e7eb      	b.n	1bce <system_clock_source_disable+0x1e>
    1bf6:	2102      	movs	r1, #2
    1bf8:	4b0a      	ldr	r3, [pc, #40]	; (1c24 <system_clock_source_disable+0x74>)
    1bfa:	681a      	ldr	r2, [r3, #0]
    1bfc:	438a      	bics	r2, r1
    1bfe:	601a      	str	r2, [r3, #0]
    1c00:	681b      	ldr	r3, [r3, #0]
    1c02:	4a06      	ldr	r2, [pc, #24]	; (1c1c <system_clock_source_disable+0x6c>)
    1c04:	b29b      	uxth	r3, r3
    1c06:	8313      	strh	r3, [r2, #24]
    1c08:	e7e1      	b.n	1bce <system_clock_source_disable+0x1e>
    1c0a:	2102      	movs	r1, #2
    1c0c:	4a06      	ldr	r2, [pc, #24]	; (1c28 <system_clock_source_disable+0x78>)
    1c0e:	7813      	ldrb	r3, [r2, #0]
    1c10:	438b      	bics	r3, r1
    1c12:	7013      	strb	r3, [r2, #0]
    1c14:	e7db      	b.n	1bce <system_clock_source_disable+0x1e>
    1c16:	2017      	movs	r0, #23
    1c18:	e7da      	b.n	1bd0 <system_clock_source_disable+0x20>
    1c1a:	46c0      	nop			; (mov r8, r8)
    1c1c:	40000c00 	.word	0x40000c00
    1c20:	40001000 	.word	0x40001000
    1c24:	2000069c 	.word	0x2000069c
    1c28:	40000c28 	.word	0x40000c28

00001c2c <system_clock_init>:
    1c2c:	2380      	movs	r3, #128	; 0x80
    1c2e:	2203      	movs	r2, #3
    1c30:	211e      	movs	r1, #30
    1c32:	b5f0      	push	{r4, r5, r6, r7, lr}
    1c34:	4f64      	ldr	r7, [pc, #400]	; (1dc8 <system_clock_init+0x19c>)
    1c36:	005b      	lsls	r3, r3, #1
    1c38:	60bb      	str	r3, [r7, #8]
    1c3a:	4b64      	ldr	r3, [pc, #400]	; (1dcc <system_clock_init+0x1a0>)
    1c3c:	b08d      	sub	sp, #52	; 0x34
    1c3e:	609a      	str	r2, [r3, #8]
    1c40:	4a63      	ldr	r2, [pc, #396]	; (1dd0 <system_clock_init+0x1a4>)
    1c42:	2002      	movs	r0, #2
    1c44:	6853      	ldr	r3, [r2, #4]
    1c46:	2401      	movs	r4, #1
    1c48:	438b      	bics	r3, r1
    1c4a:	6053      	str	r3, [r2, #4]
    1c4c:	4b61      	ldr	r3, [pc, #388]	; (1dd4 <system_clock_init+0x1a8>)
    1c4e:	4798      	blx	r3
    1c50:	2280      	movs	r2, #128	; 0x80
    1c52:	a801      	add	r0, sp, #4
    1c54:	2300      	movs	r3, #0
    1c56:	0212      	lsls	r2, r2, #8
    1c58:	6042      	str	r2, [r0, #4]
    1c5a:	2204      	movs	r2, #4
    1c5c:	7003      	strb	r3, [r0, #0]
    1c5e:	7083      	strb	r3, [r0, #2]
    1c60:	7203      	strb	r3, [r0, #8]
    1c62:	7283      	strb	r3, [r0, #10]
    1c64:	7243      	strb	r3, [r0, #9]
    1c66:	4b5c      	ldr	r3, [pc, #368]	; (1dd8 <system_clock_init+0x1ac>)
    1c68:	7042      	strb	r2, [r0, #1]
    1c6a:	70c4      	strb	r4, [r0, #3]
    1c6c:	4798      	blx	r3
    1c6e:	4b5b      	ldr	r3, [pc, #364]	; (1ddc <system_clock_init+0x1b0>)
    1c70:	2005      	movs	r0, #5
    1c72:	4798      	blx	r3
    1c74:	0021      	movs	r1, r4
    1c76:	4b5a      	ldr	r3, [pc, #360]	; (1de0 <system_clock_init+0x1b4>)
    1c78:	68da      	ldr	r2, [r3, #12]
    1c7a:	420a      	tst	r2, r1
    1c7c:	d0fc      	beq.n	1c78 <system_clock_init+0x4c>
    1c7e:	2280      	movs	r2, #128	; 0x80
    1c80:	2500      	movs	r5, #0
    1c82:	2603      	movs	r6, #3
    1c84:	6958      	ldr	r0, [r3, #20]
    1c86:	ac07      	add	r4, sp, #28
    1c88:	4302      	orrs	r2, r0
    1c8a:	615a      	str	r2, [r3, #20]
    1c8c:	0028      	movs	r0, r5
    1c8e:	6061      	str	r1, [r4, #4]
    1c90:	4b54      	ldr	r3, [pc, #336]	; (1de4 <system_clock_init+0x1b8>)
    1c92:	0021      	movs	r1, r4
    1c94:	7065      	strb	r5, [r4, #1]
    1c96:	7225      	strb	r5, [r4, #8]
    1c98:	7265      	strb	r5, [r4, #9]
    1c9a:	7026      	strb	r6, [r4, #0]
    1c9c:	4798      	blx	r3
    1c9e:	4b52      	ldr	r3, [pc, #328]	; (1de8 <system_clock_init+0x1bc>)
    1ca0:	2006      	movs	r0, #6
    1ca2:	4798      	blx	r3
    1ca4:	a804      	add	r0, sp, #16
    1ca6:	4b51      	ldr	r3, [pc, #324]	; (1dec <system_clock_init+0x1c0>)
    1ca8:	7045      	strb	r5, [r0, #1]
    1caa:	7006      	strb	r6, [r0, #0]
    1cac:	7085      	strb	r5, [r0, #2]
    1cae:	4798      	blx	r3
    1cb0:	4b4a      	ldr	r3, [pc, #296]	; (1ddc <system_clock_init+0x1b0>)
    1cb2:	2006      	movs	r0, #6
    1cb4:	4798      	blx	r3
    1cb6:	2310      	movs	r3, #16
    1cb8:	68fa      	ldr	r2, [r7, #12]
    1cba:	421a      	tst	r2, r3
    1cbc:	d0fc      	beq.n	1cb8 <system_clock_init+0x8c>
    1cbe:	2301      	movs	r3, #1
    1cc0:	2500      	movs	r5, #0
    1cc2:	6063      	str	r3, [r4, #4]
    1cc4:	3305      	adds	r3, #5
    1cc6:	7023      	strb	r3, [r4, #0]
    1cc8:	0021      	movs	r1, r4
    1cca:	4b46      	ldr	r3, [pc, #280]	; (1de4 <system_clock_init+0x1b8>)
    1ccc:	0028      	movs	r0, r5
    1cce:	7065      	strb	r5, [r4, #1]
    1cd0:	7225      	strb	r5, [r4, #8]
    1cd2:	7265      	strb	r5, [r4, #9]
    1cd4:	4798      	blx	r3
    1cd6:	2280      	movs	r2, #128	; 0x80
    1cd8:	7d3b      	ldrb	r3, [r7, #20]
    1cda:	4313      	orrs	r3, r2
    1cdc:	753b      	strb	r3, [r7, #20]
    1cde:	233f      	movs	r3, #63	; 0x3f
    1ce0:	81a3      	strh	r3, [r4, #12]
    1ce2:	3b3b      	subs	r3, #59	; 0x3b
    1ce4:	7023      	strb	r3, [r4, #0]
    1ce6:	4b42      	ldr	r3, [pc, #264]	; (1df0 <system_clock_init+0x1c4>)
    1ce8:	80a5      	strh	r5, [r4, #4]
    1cea:	80e5      	strh	r5, [r4, #6]
    1cec:	7225      	strb	r5, [r4, #8]
    1cee:	7265      	strb	r5, [r4, #9]
    1cf0:	70a5      	strb	r5, [r4, #2]
    1cf2:	7065      	strb	r5, [r4, #1]
    1cf4:	681b      	ldr	r3, [r3, #0]
    1cf6:	0e9b      	lsrs	r3, r3, #26
    1cf8:	2b3f      	cmp	r3, #63	; 0x3f
    1cfa:	d100      	bne.n	1cfe <system_clock_init+0xd2>
    1cfc:	3b20      	subs	r3, #32
    1cfe:	72a3      	strb	r3, [r4, #10]
    1d00:	23b7      	movs	r3, #183	; 0xb7
    1d02:	00db      	lsls	r3, r3, #3
    1d04:	8263      	strh	r3, [r4, #18]
    1d06:	2303      	movs	r3, #3
    1d08:	73a3      	strb	r3, [r4, #14]
    1d0a:	231f      	movs	r3, #31
    1d0c:	0020      	movs	r0, r4
    1d0e:	8223      	strh	r3, [r4, #16]
    1d10:	4b38      	ldr	r3, [pc, #224]	; (1df4 <system_clock_init+0x1c8>)
    1d12:	4798      	blx	r3
    1d14:	4b38      	ldr	r3, [pc, #224]	; (1df8 <system_clock_init+0x1cc>)
    1d16:	4798      	blx	r3
    1d18:	2601      	movs	r6, #1
    1d1a:	2305      	movs	r3, #5
    1d1c:	2500      	movs	r5, #0
    1d1e:	ac04      	add	r4, sp, #16
    1d20:	0021      	movs	r1, r4
    1d22:	7023      	strb	r3, [r4, #0]
    1d24:	0030      	movs	r0, r6
    1d26:	4b2f      	ldr	r3, [pc, #188]	; (1de4 <system_clock_init+0x1b8>)
    1d28:	6066      	str	r6, [r4, #4]
    1d2a:	7065      	strb	r5, [r4, #1]
    1d2c:	7225      	strb	r5, [r4, #8]
    1d2e:	7265      	strb	r5, [r4, #9]
    1d30:	4798      	blx	r3
    1d32:	0030      	movs	r0, r6
    1d34:	4b31      	ldr	r3, [pc, #196]	; (1dfc <system_clock_init+0x1d0>)
    1d36:	4798      	blx	r3
    1d38:	2307      	movs	r3, #7
    1d3a:	0021      	movs	r1, r4
    1d3c:	7023      	strb	r3, [r4, #0]
    1d3e:	2003      	movs	r0, #3
    1d40:	4b28      	ldr	r3, [pc, #160]	; (1de4 <system_clock_init+0x1b8>)
    1d42:	6066      	str	r6, [r4, #4]
    1d44:	7065      	strb	r5, [r4, #1]
    1d46:	7225      	strb	r5, [r4, #8]
    1d48:	7265      	strb	r5, [r4, #9]
    1d4a:	4798      	blx	r3
    1d4c:	2003      	movs	r0, #3
    1d4e:	4b2b      	ldr	r3, [pc, #172]	; (1dfc <system_clock_init+0x1d0>)
    1d50:	4798      	blx	r3
    1d52:	0021      	movs	r1, r4
    1d54:	0028      	movs	r0, r5
    1d56:	4b2a      	ldr	r3, [pc, #168]	; (1e00 <system_clock_init+0x1d4>)
    1d58:	7026      	strb	r6, [r4, #0]
    1d5a:	4798      	blx	r3
    1d5c:	0028      	movs	r0, r5
    1d5e:	4b29      	ldr	r3, [pc, #164]	; (1e04 <system_clock_init+0x1d8>)
    1d60:	4798      	blx	r3
    1d62:	2007      	movs	r0, #7
    1d64:	4b1d      	ldr	r3, [pc, #116]	; (1ddc <system_clock_init+0x1b0>)
    1d66:	4798      	blx	r3
    1d68:	22d0      	movs	r2, #208	; 0xd0
    1d6a:	0112      	lsls	r2, r2, #4
    1d6c:	68fb      	ldr	r3, [r7, #12]
    1d6e:	4013      	ands	r3, r2
    1d70:	4293      	cmp	r3, r2
    1d72:	d1fb      	bne.n	1d6c <system_clock_init+0x140>
    1d74:	2301      	movs	r3, #1
    1d76:	2600      	movs	r6, #0
    1d78:	4d23      	ldr	r5, [pc, #140]	; (1e08 <system_clock_init+0x1dc>)
    1d7a:	0021      	movs	r1, r4
    1d7c:	71ab      	strb	r3, [r5, #6]
    1d7e:	716b      	strb	r3, [r5, #5]
    1d80:	712b      	strb	r3, [r5, #4]
    1d82:	6063      	str	r3, [r4, #4]
    1d84:	3305      	adds	r3, #5
    1d86:	7023      	strb	r3, [r4, #0]
    1d88:	0030      	movs	r0, r6
    1d8a:	4b16      	ldr	r3, [pc, #88]	; (1de4 <system_clock_init+0x1b8>)
    1d8c:	7066      	strb	r6, [r4, #1]
    1d8e:	7226      	strb	r6, [r4, #8]
    1d90:	7266      	strb	r6, [r4, #9]
    1d92:	4798      	blx	r3
    1d94:	0030      	movs	r0, r6
    1d96:	4b19      	ldr	r3, [pc, #100]	; (1dfc <system_clock_init+0x1d0>)
    1d98:	4798      	blx	r3
    1d9a:	4b1c      	ldr	r3, [pc, #112]	; (1e0c <system_clock_init+0x1e0>)
    1d9c:	0030      	movs	r0, r6
    1d9e:	4798      	blx	r3
    1da0:	7929      	ldrb	r1, [r5, #4]
    1da2:	4b1b      	ldr	r3, [pc, #108]	; (1e10 <system_clock_init+0x1e4>)
    1da4:	b2c9      	uxtb	r1, r1
    1da6:	4798      	blx	r3
    1da8:	4b1a      	ldr	r3, [pc, #104]	; (1e14 <system_clock_init+0x1e8>)
    1daa:	4298      	cmp	r0, r3
    1dac:	d804      	bhi.n	1db8 <system_clock_init+0x18c>
    1dae:	2000      	movs	r0, #0
    1db0:	4b08      	ldr	r3, [pc, #32]	; (1dd4 <system_clock_init+0x1a8>)
    1db2:	4798      	blx	r3
    1db4:	b00d      	add	sp, #52	; 0x34
    1db6:	bdf0      	pop	{r4, r5, r6, r7, pc}
    1db8:	2308      	movs	r3, #8
    1dba:	71ab      	strb	r3, [r5, #6]
    1dbc:	716b      	strb	r3, [r5, #5]
    1dbe:	4b16      	ldr	r3, [pc, #88]	; (1e18 <system_clock_init+0x1ec>)
    1dc0:	4298      	cmp	r0, r3
    1dc2:	d8f7      	bhi.n	1db4 <system_clock_init+0x188>
    1dc4:	e7f3      	b.n	1dae <system_clock_init+0x182>
    1dc6:	46c0      	nop			; (mov r8, r8)
    1dc8:	40000c00 	.word	0x40000c00
    1dcc:	40001400 	.word	0x40001400
    1dd0:	41004000 	.word	0x41004000
    1dd4:	00001915 	.word	0x00001915
    1dd8:	00001a01 	.word	0x00001a01
    1ddc:	00001b0d 	.word	0x00001b0d
    1de0:	40001000 	.word	0x40001000
    1de4:	00001e5d 	.word	0x00001e5d
    1de8:	00001bb1 	.word	0x00001bb1
    1dec:	000019cd 	.word	0x000019cd
    1df0:	00806020 	.word	0x00806020
    1df4:	00001a8d 	.word	0x00001a8d
    1df8:	00001e3d 	.word	0x00001e3d
    1dfc:	00001ef5 	.word	0x00001ef5
    1e00:	00001ff5 	.word	0x00001ff5
    1e04:	00001f95 	.word	0x00001f95
    1e08:	40000400 	.word	0x40000400
    1e0c:	00001f2d 	.word	0x00001f2d
    1e10:	00004309 	.word	0x00004309
    1e14:	005b8d80 	.word	0x005b8d80
    1e18:	00b71b00 	.word	0x00b71b00

00001e1c <system_gclk_is_syncing>:
    1e1c:	2204      	movs	r2, #4
    1e1e:	4082      	lsls	r2, r0
    1e20:	4b04      	ldr	r3, [pc, #16]	; (1e34 <system_gclk_is_syncing+0x18>)
    1e22:	4805      	ldr	r0, [pc, #20]	; (1e38 <system_gclk_is_syncing+0x1c>)
    1e24:	685b      	ldr	r3, [r3, #4]
    1e26:	4018      	ands	r0, r3
    1e28:	4010      	ands	r0, r2
    1e2a:	1e43      	subs	r3, r0, #1
    1e2c:	4198      	sbcs	r0, r3
    1e2e:	b2c0      	uxtb	r0, r0
    1e30:	4770      	bx	lr
    1e32:	46c0      	nop			; (mov r8, r8)
    1e34:	40001800 	.word	0x40001800
    1e38:	000007fc 	.word	0x000007fc

00001e3c <system_gclk_init>:
    1e3c:	2340      	movs	r3, #64	; 0x40
    1e3e:	4a05      	ldr	r2, [pc, #20]	; (1e54 <system_gclk_init+0x18>)
    1e40:	6951      	ldr	r1, [r2, #20]
    1e42:	430b      	orrs	r3, r1
    1e44:	6153      	str	r3, [r2, #20]
    1e46:	2301      	movs	r3, #1
    1e48:	4a03      	ldr	r2, [pc, #12]	; (1e58 <system_gclk_init+0x1c>)
    1e4a:	7013      	strb	r3, [r2, #0]
    1e4c:	7811      	ldrb	r1, [r2, #0]
    1e4e:	4219      	tst	r1, r3
    1e50:	d1fc      	bne.n	1e4c <system_gclk_init+0x10>
    1e52:	4770      	bx	lr
    1e54:	40000400 	.word	0x40000400
    1e58:	40001800 	.word	0x40001800

00001e5c <system_gclk_gen_set_config>:
    1e5c:	b570      	push	{r4, r5, r6, lr}
    1e5e:	784b      	ldrb	r3, [r1, #1]
    1e60:	0005      	movs	r5, r0
    1e62:	780c      	ldrb	r4, [r1, #0]
    1e64:	2b00      	cmp	r3, #0
    1e66:	d002      	beq.n	1e6e <system_gclk_gen_set_config+0x12>
    1e68:	2380      	movs	r3, #128	; 0x80
    1e6a:	00db      	lsls	r3, r3, #3
    1e6c:	431c      	orrs	r4, r3
    1e6e:	7a4b      	ldrb	r3, [r1, #9]
    1e70:	2b00      	cmp	r3, #0
    1e72:	d002      	beq.n	1e7a <system_gclk_gen_set_config+0x1e>
    1e74:	2380      	movs	r3, #128	; 0x80
    1e76:	011b      	lsls	r3, r3, #4
    1e78:	431c      	orrs	r4, r3
    1e7a:	684a      	ldr	r2, [r1, #4]
    1e7c:	2a01      	cmp	r2, #1
    1e7e:	d913      	bls.n	1ea8 <system_gclk_gen_set_config+0x4c>
    1e80:	1e53      	subs	r3, r2, #1
    1e82:	4013      	ands	r3, r2
    1e84:	2002      	movs	r0, #2
    1e86:	2b00      	cmp	r3, #0
    1e88:	d007      	beq.n	1e9a <system_gclk_gen_set_config+0x3e>
    1e8a:	2380      	movs	r3, #128	; 0x80
    1e8c:	0412      	lsls	r2, r2, #16
    1e8e:	009b      	lsls	r3, r3, #2
    1e90:	431a      	orrs	r2, r3
    1e92:	4314      	orrs	r4, r2
    1e94:	e008      	b.n	1ea8 <system_gclk_gen_set_config+0x4c>
    1e96:	3301      	adds	r3, #1
    1e98:	0040      	lsls	r0, r0, #1
    1e9a:	4290      	cmp	r0, r2
    1e9c:	d3fb      	bcc.n	1e96 <system_gclk_gen_set_config+0x3a>
    1e9e:	2280      	movs	r2, #128	; 0x80
    1ea0:	0152      	lsls	r2, r2, #5
    1ea2:	4314      	orrs	r4, r2
    1ea4:	041b      	lsls	r3, r3, #16
    1ea6:	431c      	orrs	r4, r3
    1ea8:	7a0b      	ldrb	r3, [r1, #8]
    1eaa:	2b00      	cmp	r3, #0
    1eac:	d002      	beq.n	1eb4 <system_gclk_gen_set_config+0x58>
    1eae:	2380      	movs	r3, #128	; 0x80
    1eb0:	019b      	lsls	r3, r3, #6
    1eb2:	431c      	orrs	r4, r3
    1eb4:	0028      	movs	r0, r5
    1eb6:	4e0b      	ldr	r6, [pc, #44]	; (1ee4 <system_gclk_gen_set_config+0x88>)
    1eb8:	47b0      	blx	r6
    1eba:	2800      	cmp	r0, #0
    1ebc:	d1fa      	bne.n	1eb4 <system_gclk_gen_set_config+0x58>
    1ebe:	4b0a      	ldr	r3, [pc, #40]	; (1ee8 <system_gclk_gen_set_config+0x8c>)
    1ec0:	4798      	blx	r3
    1ec2:	2180      	movs	r1, #128	; 0x80
    1ec4:	4b09      	ldr	r3, [pc, #36]	; (1eec <system_gclk_gen_set_config+0x90>)
    1ec6:	00aa      	lsls	r2, r5, #2
    1ec8:	18d2      	adds	r2, r2, r3
    1eca:	6a13      	ldr	r3, [r2, #32]
    1ecc:	0049      	lsls	r1, r1, #1
    1ece:	400b      	ands	r3, r1
    1ed0:	431c      	orrs	r4, r3
    1ed2:	6214      	str	r4, [r2, #32]
    1ed4:	0028      	movs	r0, r5
    1ed6:	47b0      	blx	r6
    1ed8:	2800      	cmp	r0, #0
    1eda:	d1fb      	bne.n	1ed4 <system_gclk_gen_set_config+0x78>
    1edc:	4b04      	ldr	r3, [pc, #16]	; (1ef0 <system_gclk_gen_set_config+0x94>)
    1ede:	4798      	blx	r3
    1ee0:	bd70      	pop	{r4, r5, r6, pc}
    1ee2:	46c0      	nop			; (mov r8, r8)
    1ee4:	00001e1d 	.word	0x00001e1d
    1ee8:	00000ed1 	.word	0x00000ed1
    1eec:	40001800 	.word	0x40001800
    1ef0:	00000f05 	.word	0x00000f05

00001ef4 <system_gclk_gen_enable>:
    1ef4:	b510      	push	{r4, lr}
    1ef6:	0004      	movs	r4, r0
    1ef8:	0020      	movs	r0, r4
    1efa:	4b08      	ldr	r3, [pc, #32]	; (1f1c <system_gclk_gen_enable+0x28>)
    1efc:	4798      	blx	r3
    1efe:	2800      	cmp	r0, #0
    1f00:	d1fa      	bne.n	1ef8 <system_gclk_gen_enable+0x4>
    1f02:	4b07      	ldr	r3, [pc, #28]	; (1f20 <system_gclk_gen_enable+0x2c>)
    1f04:	4798      	blx	r3
    1f06:	4b07      	ldr	r3, [pc, #28]	; (1f24 <system_gclk_gen_enable+0x30>)
    1f08:	00a4      	lsls	r4, r4, #2
    1f0a:	18e4      	adds	r4, r4, r3
    1f0c:	2380      	movs	r3, #128	; 0x80
    1f0e:	6a22      	ldr	r2, [r4, #32]
    1f10:	005b      	lsls	r3, r3, #1
    1f12:	4313      	orrs	r3, r2
    1f14:	6223      	str	r3, [r4, #32]
    1f16:	4b04      	ldr	r3, [pc, #16]	; (1f28 <system_gclk_gen_enable+0x34>)
    1f18:	4798      	blx	r3
    1f1a:	bd10      	pop	{r4, pc}
    1f1c:	00001e1d 	.word	0x00001e1d
    1f20:	00000ed1 	.word	0x00000ed1
    1f24:	40001800 	.word	0x40001800
    1f28:	00000f05 	.word	0x00000f05

00001f2c <system_gclk_gen_get_hz>:
    1f2c:	b5f8      	push	{r3, r4, r5, r6, r7, lr}
    1f2e:	0004      	movs	r4, r0
    1f30:	0020      	movs	r0, r4
    1f32:	4b12      	ldr	r3, [pc, #72]	; (1f7c <system_gclk_gen_get_hz+0x50>)
    1f34:	4798      	blx	r3
    1f36:	2800      	cmp	r0, #0
    1f38:	d1fa      	bne.n	1f30 <system_gclk_gen_get_hz+0x4>
    1f3a:	4f11      	ldr	r7, [pc, #68]	; (1f80 <system_gclk_gen_get_hz+0x54>)
    1f3c:	3408      	adds	r4, #8
    1f3e:	00a4      	lsls	r4, r4, #2
    1f40:	4b10      	ldr	r3, [pc, #64]	; (1f84 <system_gclk_gen_get_hz+0x58>)
    1f42:	4798      	blx	r3
    1f44:	59e0      	ldr	r0, [r4, r7]
    1f46:	4b10      	ldr	r3, [pc, #64]	; (1f88 <system_gclk_gen_get_hz+0x5c>)
    1f48:	0700      	lsls	r0, r0, #28
    1f4a:	0f00      	lsrs	r0, r0, #28
    1f4c:	4798      	blx	r3
    1f4e:	59e6      	ldr	r6, [r4, r7]
    1f50:	59e4      	ldr	r4, [r4, r7]
    1f52:	04f6      	lsls	r6, r6, #19
    1f54:	4b0d      	ldr	r3, [pc, #52]	; (1f8c <system_gclk_gen_get_hz+0x60>)
    1f56:	0ff6      	lsrs	r6, r6, #31
    1f58:	0005      	movs	r5, r0
    1f5a:	0c24      	lsrs	r4, r4, #16
    1f5c:	4798      	blx	r3
    1f5e:	2e00      	cmp	r6, #0
    1f60:	d108      	bne.n	1f74 <system_gclk_gen_get_hz+0x48>
    1f62:	2c01      	cmp	r4, #1
    1f64:	d904      	bls.n	1f70 <system_gclk_gen_get_hz+0x44>
    1f66:	0028      	movs	r0, r5
    1f68:	0021      	movs	r1, r4
    1f6a:	4b09      	ldr	r3, [pc, #36]	; (1f90 <system_gclk_gen_get_hz+0x64>)
    1f6c:	4798      	blx	r3
    1f6e:	0005      	movs	r5, r0
    1f70:	0028      	movs	r0, r5
    1f72:	bdf8      	pop	{r3, r4, r5, r6, r7, pc}
    1f74:	3401      	adds	r4, #1
    1f76:	40e5      	lsrs	r5, r4
    1f78:	e7fa      	b.n	1f70 <system_gclk_gen_get_hz+0x44>
    1f7a:	46c0      	nop			; (mov r8, r8)
    1f7c:	00001e1d 	.word	0x00001e1d
    1f80:	40001800 	.word	0x40001800
    1f84:	00000ed1 	.word	0x00000ed1
    1f88:	0000193d 	.word	0x0000193d
    1f8c:	00000f05 	.word	0x00000f05
    1f90:	00004309 	.word	0x00004309

00001f94 <system_gclk_chan_enable>:
    1f94:	b510      	push	{r4, lr}
    1f96:	0004      	movs	r4, r0
    1f98:	4b07      	ldr	r3, [pc, #28]	; (1fb8 <system_gclk_chan_enable+0x24>)
    1f9a:	4798      	blx	r3
    1f9c:	4b07      	ldr	r3, [pc, #28]	; (1fbc <system_gclk_chan_enable+0x28>)
    1f9e:	00a0      	lsls	r0, r4, #2
    1fa0:	18c1      	adds	r1, r0, r3
    1fa2:	2340      	movs	r3, #64	; 0x40
    1fa4:	0008      	movs	r0, r1
    1fa6:	6fca      	ldr	r2, [r1, #124]	; 0x7c
    1fa8:	431a      	orrs	r2, r3
    1faa:	67ca      	str	r2, [r1, #124]	; 0x7c
    1fac:	6fc2      	ldr	r2, [r0, #124]	; 0x7c
    1fae:	421a      	tst	r2, r3
    1fb0:	d0fc      	beq.n	1fac <system_gclk_chan_enable+0x18>
    1fb2:	4b03      	ldr	r3, [pc, #12]	; (1fc0 <system_gclk_chan_enable+0x2c>)
    1fb4:	4798      	blx	r3
    1fb6:	bd10      	pop	{r4, pc}
    1fb8:	00000ed1 	.word	0x00000ed1
    1fbc:	40001804 	.word	0x40001804
    1fc0:	00000f05 	.word	0x00000f05

00001fc4 <system_gclk_chan_disable>:
    1fc4:	b510      	push	{r4, lr}
    1fc6:	0004      	movs	r4, r0
    1fc8:	4b07      	ldr	r3, [pc, #28]	; (1fe8 <system_gclk_chan_disable+0x24>)
    1fca:	4798      	blx	r3
    1fcc:	4b07      	ldr	r3, [pc, #28]	; (1fec <system_gclk_chan_disable+0x28>)
    1fce:	00a0      	lsls	r0, r4, #2
    1fd0:	18c1      	adds	r1, r0, r3
    1fd2:	2340      	movs	r3, #64	; 0x40
    1fd4:	0008      	movs	r0, r1
    1fd6:	6fca      	ldr	r2, [r1, #124]	; 0x7c
    1fd8:	439a      	bics	r2, r3
    1fda:	67ca      	str	r2, [r1, #124]	; 0x7c
    1fdc:	6fc2      	ldr	r2, [r0, #124]	; 0x7c
    1fde:	421a      	tst	r2, r3
    1fe0:	d1fc      	bne.n	1fdc <system_gclk_chan_disable+0x18>
    1fe2:	4b03      	ldr	r3, [pc, #12]	; (1ff0 <system_gclk_chan_disable+0x2c>)
    1fe4:	4798      	blx	r3
    1fe6:	bd10      	pop	{r4, pc}
    1fe8:	00000ed1 	.word	0x00000ed1
    1fec:	40001804 	.word	0x40001804
    1ff0:	00000f05 	.word	0x00000f05

00001ff4 <system_gclk_chan_set_config>:
    1ff4:	b570      	push	{r4, r5, r6, lr}
    1ff6:	000d      	movs	r5, r1
    1ff8:	4b05      	ldr	r3, [pc, #20]	; (2010 <system_gclk_chan_set_config+0x1c>)
    1ffa:	0004      	movs	r4, r0
    1ffc:	4798      	blx	r3
    1ffe:	220f      	movs	r2, #15
    2000:	782b      	ldrb	r3, [r5, #0]
    2002:	3420      	adds	r4, #32
    2004:	4013      	ands	r3, r2
    2006:	4a03      	ldr	r2, [pc, #12]	; (2014 <system_gclk_chan_set_config+0x20>)
    2008:	00a4      	lsls	r4, r4, #2
    200a:	50a3      	str	r3, [r4, r2]
    200c:	bd70      	pop	{r4, r5, r6, pc}
    200e:	46c0      	nop			; (mov r8, r8)
    2010:	00001fc5 	.word	0x00001fc5
    2014:	40001800 	.word	0x40001800

00002018 <system_gclk_chan_get_hz>:
    2018:	b510      	push	{r4, lr}
    201a:	0004      	movs	r4, r0
    201c:	4b06      	ldr	r3, [pc, #24]	; (2038 <system_gclk_chan_get_hz+0x20>)
    201e:	4798      	blx	r3
    2020:	3420      	adds	r4, #32
    2022:	4b06      	ldr	r3, [pc, #24]	; (203c <system_gclk_chan_get_hz+0x24>)
    2024:	00a4      	lsls	r4, r4, #2
    2026:	58e4      	ldr	r4, [r4, r3]
    2028:	4b05      	ldr	r3, [pc, #20]	; (2040 <system_gclk_chan_get_hz+0x28>)
    202a:	0724      	lsls	r4, r4, #28
    202c:	0f24      	lsrs	r4, r4, #28
    202e:	4798      	blx	r3
    2030:	0020      	movs	r0, r4
    2032:	4b04      	ldr	r3, [pc, #16]	; (2044 <system_gclk_chan_get_hz+0x2c>)
    2034:	4798      	blx	r3
    2036:	bd10      	pop	{r4, pc}
    2038:	00000ed1 	.word	0x00000ed1
    203c:	40001800 	.word	0x40001800
    2040:	00000f05 	.word	0x00000f05
    2044:	00001f2d 	.word	0x00001f2d

00002048 <_system_pinmux_config>:
    2048:	78d3      	ldrb	r3, [r2, #3]
    204a:	b530      	push	{r4, r5, lr}
    204c:	2b00      	cmp	r3, #0
    204e:	d135      	bne.n	20bc <_system_pinmux_config+0x74>
    2050:	7814      	ldrb	r4, [r2, #0]
    2052:	2c80      	cmp	r4, #128	; 0x80
    2054:	d003      	beq.n	205e <_system_pinmux_config+0x16>
    2056:	2380      	movs	r3, #128	; 0x80
    2058:	0624      	lsls	r4, r4, #24
    205a:	025b      	lsls	r3, r3, #9
    205c:	4323      	orrs	r3, r4
    205e:	2502      	movs	r5, #2
    2060:	7854      	ldrb	r4, [r2, #1]
    2062:	43ac      	bics	r4, r5
    2064:	d106      	bne.n	2074 <_system_pinmux_config+0x2c>
    2066:	7894      	ldrb	r4, [r2, #2]
    2068:	2c00      	cmp	r4, #0
    206a:	d124      	bne.n	20b6 <_system_pinmux_config+0x6e>
    206c:	2480      	movs	r4, #128	; 0x80
    206e:	02a4      	lsls	r4, r4, #10
    2070:	4323      	orrs	r3, r4
    2072:	6041      	str	r1, [r0, #4]
    2074:	7854      	ldrb	r4, [r2, #1]
    2076:	3c01      	subs	r4, #1
    2078:	2c01      	cmp	r4, #1
    207a:	d801      	bhi.n	2080 <_system_pinmux_config+0x38>
    207c:	4c12      	ldr	r4, [pc, #72]	; (20c8 <_system_pinmux_config+0x80>)
    207e:	4023      	ands	r3, r4
    2080:	24a0      	movs	r4, #160	; 0xa0
    2082:	b28d      	uxth	r5, r1
    2084:	05e4      	lsls	r4, r4, #23
    2086:	432c      	orrs	r4, r5
    2088:	431c      	orrs	r4, r3
    208a:	6284      	str	r4, [r0, #40]	; 0x28
    208c:	24d0      	movs	r4, #208	; 0xd0
    208e:	0c0d      	lsrs	r5, r1, #16
    2090:	0624      	lsls	r4, r4, #24
    2092:	432c      	orrs	r4, r5
    2094:	431c      	orrs	r4, r3
    2096:	6284      	str	r4, [r0, #40]	; 0x28
    2098:	78d4      	ldrb	r4, [r2, #3]
    209a:	2c00      	cmp	r4, #0
    209c:	d10a      	bne.n	20b4 <_system_pinmux_config+0x6c>
    209e:	035b      	lsls	r3, r3, #13
    20a0:	d503      	bpl.n	20aa <_system_pinmux_config+0x62>
    20a2:	7893      	ldrb	r3, [r2, #2]
    20a4:	2b01      	cmp	r3, #1
    20a6:	d10c      	bne.n	20c2 <_system_pinmux_config+0x7a>
    20a8:	6181      	str	r1, [r0, #24]
    20aa:	7853      	ldrb	r3, [r2, #1]
    20ac:	3b01      	subs	r3, #1
    20ae:	2b01      	cmp	r3, #1
    20b0:	d800      	bhi.n	20b4 <_system_pinmux_config+0x6c>
    20b2:	6081      	str	r1, [r0, #8]
    20b4:	bd30      	pop	{r4, r5, pc}
    20b6:	24c0      	movs	r4, #192	; 0xc0
    20b8:	02e4      	lsls	r4, r4, #11
    20ba:	e7d9      	b.n	2070 <_system_pinmux_config+0x28>
    20bc:	6041      	str	r1, [r0, #4]
    20be:	2300      	movs	r3, #0
    20c0:	e7de      	b.n	2080 <_system_pinmux_config+0x38>
    20c2:	6141      	str	r1, [r0, #20]
    20c4:	e7f1      	b.n	20aa <_system_pinmux_config+0x62>
    20c6:	46c0      	nop			; (mov r8, r8)
    20c8:	fffbffff 	.word	0xfffbffff

000020cc <system_pinmux_pin_set_config>:
    20cc:	b510      	push	{r4, lr}
    20ce:	0003      	movs	r3, r0
    20d0:	000a      	movs	r2, r1
    20d2:	0944      	lsrs	r4, r0, #5
    20d4:	09c1      	lsrs	r1, r0, #7
    20d6:	2000      	movs	r0, #0
    20d8:	4281      	cmp	r1, r0
    20da:	d102      	bne.n	20e2 <system_pinmux_pin_set_config+0x16>
    20dc:	4904      	ldr	r1, [pc, #16]	; (20f0 <system_pinmux_pin_set_config+0x24>)
    20de:	01e0      	lsls	r0, r4, #7
    20e0:	1840      	adds	r0, r0, r1
    20e2:	211f      	movs	r1, #31
    20e4:	400b      	ands	r3, r1
    20e6:	391e      	subs	r1, #30
    20e8:	4099      	lsls	r1, r3
    20ea:	4b02      	ldr	r3, [pc, #8]	; (20f4 <system_pinmux_pin_set_config+0x28>)
    20ec:	4798      	blx	r3
    20ee:	bd10      	pop	{r4, pc}
    20f0:	40002800 	.word	0x40002800
    20f4:	00002049 	.word	0x00002049

000020f8 <_system_dummy_init>:
    20f8:	4770      	bx	lr
	...

000020fc <system_init>:
    20fc:	b510      	push	{r4, lr}
    20fe:	4b05      	ldr	r3, [pc, #20]	; (2114 <system_init+0x18>)
    2100:	4798      	blx	r3
    2102:	4b05      	ldr	r3, [pc, #20]	; (2118 <system_init+0x1c>)
    2104:	4798      	blx	r3
    2106:	4b05      	ldr	r3, [pc, #20]	; (211c <system_init+0x20>)
    2108:	4798      	blx	r3
    210a:	4b05      	ldr	r3, [pc, #20]	; (2120 <system_init+0x24>)
    210c:	4798      	blx	r3
    210e:	4b05      	ldr	r3, [pc, #20]	; (2124 <system_init+0x28>)
    2110:	4798      	blx	r3
    2112:	bd10      	pop	{r4, pc}
    2114:	00001c2d 	.word	0x00001c2d
    2118:	00000f35 	.word	0x00000f35
    211c:	000020f9 	.word	0x000020f9
    2120:	00000fe1 	.word	0x00000fe1
    2124:	000020f9 	.word	0x000020f9

00002128 <cpu_irq_save>:
    2128:	b082      	sub	sp, #8
    212a:	f3ef 8310 	mrs	r3, PRIMASK
    212e:	425a      	negs	r2, r3
    2130:	4153      	adcs	r3, r2
    2132:	9301      	str	r3, [sp, #4]
    2134:	b672      	cpsid	i
    2136:	f3bf 8f5f 	dmb	sy
    213a:	2200      	movs	r2, #0
    213c:	4b02      	ldr	r3, [pc, #8]	; (2148 <cpu_irq_save+0x20>)
    213e:	701a      	strb	r2, [r3, #0]
    2140:	9801      	ldr	r0, [sp, #4]
    2142:	b002      	add	sp, #8
    2144:	4770      	bx	lr
    2146:	46c0      	nop			; (mov r8, r8)
    2148:	20000110 	.word	0x20000110

0000214c <udd_ep_get_job>:
    214c:	227f      	movs	r2, #127	; 0x7f
    214e:	4002      	ands	r2, r0
    2150:	1e13      	subs	r3, r2, #0
    2152:	d009      	beq.n	2168 <udd_ep_get_job+0x1c>
    2154:	230f      	movs	r3, #15
    2156:	4003      	ands	r3, r0
    2158:	005b      	lsls	r3, r3, #1
    215a:	09c0      	lsrs	r0, r0, #7
    215c:	1818      	adds	r0, r3, r0
    215e:	2314      	movs	r3, #20
    2160:	3802      	subs	r0, #2
    2162:	4358      	muls	r0, r3
    2164:	4b01      	ldr	r3, [pc, #4]	; (216c <udd_ep_get_job+0x20>)
    2166:	181b      	adds	r3, r3, r0
    2168:	0018      	movs	r0, r3
    216a:	4770      	bx	lr
    216c:	200006bc 	.word	0x200006bc

00002170 <udd_ep_transfer_process>:
    2170:	b5f0      	push	{r4, r5, r6, r7, lr}
    2172:	798d      	ldrb	r5, [r1, #6]
    2174:	b085      	sub	sp, #20
    2176:	b26a      	sxtb	r2, r5
    2178:	000e      	movs	r6, r1
    217a:	4b54      	ldr	r3, [pc, #336]	; (22cc <udd_ep_transfer_process+0x15c>)
    217c:	0028      	movs	r0, r5
    217e:	2a00      	cmp	r2, #0
    2180:	da48      	bge.n	2214 <udd_ep_transfer_process+0xa4>
    2182:	270f      	movs	r7, #15
    2184:	4798      	blx	r3
    2186:	402f      	ands	r7, r5
    2188:	9701      	str	r7, [sp, #4]
    218a:	8a03      	ldrh	r3, [r0, #16]
    218c:	6881      	ldr	r1, [r0, #8]
    218e:	9302      	str	r3, [sp, #8]
    2190:	8876      	ldrh	r6, [r6, #2]
    2192:	68c3      	ldr	r3, [r0, #12]
    2194:	0004      	movs	r4, r0
    2196:	18f6      	adds	r6, r6, r3
    2198:	60c6      	str	r6, [r0, #12]
    219a:	7c87      	ldrb	r7, [r0, #18]
    219c:	428e      	cmp	r6, r1
    219e:	d025      	beq.n	21ec <udd_ep_transfer_process+0x7c>
    21a0:	1b8d      	subs	r5, r1, r6
    21a2:	4b4b      	ldr	r3, [pc, #300]	; (22d0 <udd_ep_transfer_process+0x160>)
    21a4:	b2ad      	uxth	r5, r5
    21a6:	429d      	cmp	r5, r3
    21a8:	d906      	bls.n	21b8 <udd_ep_transfer_process+0x48>
    21aa:	0018      	movs	r0, r3
    21ac:	9902      	ldr	r1, [sp, #8]
    21ae:	4b49      	ldr	r3, [pc, #292]	; (22d4 <udd_ep_transfer_process+0x164>)
    21b0:	4798      	blx	r3
    21b2:	4b47      	ldr	r3, [pc, #284]	; (22d0 <udd_ep_transfer_process+0x160>)
    21b4:	1a5d      	subs	r5, r3, r1
    21b6:	b2ad      	uxth	r5, r5
    21b8:	2100      	movs	r1, #0
    21ba:	07bb      	lsls	r3, r7, #30
    21bc:	d507      	bpl.n	21ce <udd_ep_transfer_process+0x5e>
    21be:	4b46      	ldr	r3, [pc, #280]	; (22d8 <udd_ep_transfer_process+0x168>)
    21c0:	9902      	ldr	r1, [sp, #8]
    21c2:	0028      	movs	r0, r5
    21c4:	4798      	blx	r3
    21c6:	b28b      	uxth	r3, r1
    21c8:	4259      	negs	r1, r3
    21ca:	4159      	adcs	r1, r3
    21cc:	b2c9      	uxtb	r1, r1
    21ce:	2202      	movs	r2, #2
    21d0:	7ca3      	ldrb	r3, [r4, #18]
    21d2:	0049      	lsls	r1, r1, #1
    21d4:	4393      	bics	r3, r2
    21d6:	4319      	orrs	r1, r3
    21d8:	002b      	movs	r3, r5
    21da:	6862      	ldr	r2, [r4, #4]
    21dc:	74a1      	strb	r1, [r4, #18]
    21de:	1992      	adds	r2, r2, r6
    21e0:	9901      	ldr	r1, [sp, #4]
    21e2:	483e      	ldr	r0, [pc, #248]	; (22dc <udd_ep_transfer_process+0x16c>)
    21e4:	4c3e      	ldr	r4, [pc, #248]	; (22e0 <udd_ep_transfer_process+0x170>)
    21e6:	47a0      	blx	r4
    21e8:	b005      	add	sp, #20
    21ea:	bdf0      	pop	{r4, r5, r6, r7, pc}
    21ec:	2302      	movs	r3, #2
    21ee:	0038      	movs	r0, r7
    21f0:	4018      	ands	r0, r3
    21f2:	d005      	beq.n	2200 <udd_ep_transfer_process+0x90>
    21f4:	6862      	ldr	r2, [r4, #4]
    21f6:	439f      	bics	r7, r3
    21f8:	74a7      	strb	r7, [r4, #18]
    21fa:	1992      	adds	r2, r2, r6
    21fc:	2300      	movs	r3, #0
    21fe:	e7ef      	b.n	21e0 <udd_ep_transfer_process+0x70>
    2200:	2301      	movs	r3, #1
    2202:	439f      	bics	r7, r3
    2204:	6823      	ldr	r3, [r4, #0]
    2206:	74a7      	strb	r7, [r4, #18]
    2208:	2b00      	cmp	r3, #0
    220a:	d0ed      	beq.n	21e8 <udd_ep_transfer_process+0x78>
    220c:	002a      	movs	r2, r5
    220e:	0031      	movs	r1, r6
    2210:	4798      	blx	r3
    2212:	e7e9      	b.n	21e8 <udd_ep_transfer_process+0x78>
    2214:	4798      	blx	r3
    2216:	230f      	movs	r3, #15
    2218:	402b      	ands	r3, r5
    221a:	9302      	str	r3, [sp, #8]
    221c:	8a03      	ldrh	r3, [r0, #16]
    221e:	0004      	movs	r4, r0
    2220:	9301      	str	r3, [sp, #4]
    2222:	7c83      	ldrb	r3, [r0, #18]
    2224:	8837      	ldrh	r7, [r6, #0]
    2226:	075b      	lsls	r3, r3, #29
    2228:	d511      	bpl.n	224e <udd_ep_transfer_process+0xde>
    222a:	68c2      	ldr	r2, [r0, #12]
    222c:	6843      	ldr	r3, [r0, #4]
    222e:	4694      	mov	ip, r2
    2230:	4463      	add	r3, ip
    2232:	9303      	str	r3, [sp, #12]
    2234:	9901      	ldr	r1, [sp, #4]
    2236:	4b28      	ldr	r3, [pc, #160]	; (22d8 <udd_ep_transfer_process+0x168>)
    2238:	6880      	ldr	r0, [r0, #8]
    223a:	4798      	blx	r3
    223c:	9b02      	ldr	r3, [sp, #8]
    223e:	000a      	movs	r2, r1
    2240:	3b01      	subs	r3, #1
    2242:	4928      	ldr	r1, [pc, #160]	; (22e4 <udd_ep_transfer_process+0x174>)
    2244:	019b      	lsls	r3, r3, #6
    2246:	1859      	adds	r1, r3, r1
    2248:	9803      	ldr	r0, [sp, #12]
    224a:	4b27      	ldr	r3, [pc, #156]	; (22e8 <udd_ep_transfer_process+0x178>)
    224c:	4798      	blx	r3
    224e:	68e3      	ldr	r3, [r4, #12]
    2250:	18fa      	adds	r2, r7, r3
    2252:	68a3      	ldr	r3, [r4, #8]
    2254:	60e2      	str	r2, [r4, #12]
    2256:	429a      	cmp	r2, r3
    2258:	d900      	bls.n	225c <udd_ep_transfer_process+0xec>
    225a:	60e3      	str	r3, [r4, #12]
    225c:	88b2      	ldrh	r2, [r6, #4]
    225e:	42ba      	cmp	r2, r7
    2260:	d127      	bne.n	22b2 <udd_ep_transfer_process+0x142>
    2262:	68e6      	ldr	r6, [r4, #12]
    2264:	42b3      	cmp	r3, r6
    2266:	d024      	beq.n	22b2 <udd_ep_transfer_process+0x142>
    2268:	1b9d      	subs	r5, r3, r6
    226a:	4f19      	ldr	r7, [pc, #100]	; (22d0 <udd_ep_transfer_process+0x160>)
    226c:	b2ad      	uxth	r5, r5
    226e:	9901      	ldr	r1, [sp, #4]
    2270:	42bd      	cmp	r5, r7
    2272:	d916      	bls.n	22a2 <udd_ep_transfer_process+0x132>
    2274:	4b17      	ldr	r3, [pc, #92]	; (22d4 <udd_ep_transfer_process+0x164>)
    2276:	0038      	movs	r0, r7
    2278:	4798      	blx	r3
    227a:	1a7b      	subs	r3, r7, r1
    227c:	9a01      	ldr	r2, [sp, #4]
    227e:	b29b      	uxth	r3, r3
    2280:	4816      	ldr	r0, [pc, #88]	; (22dc <udd_ep_transfer_process+0x16c>)
    2282:	4f1a      	ldr	r7, [pc, #104]	; (22ec <udd_ep_transfer_process+0x17c>)
    2284:	429a      	cmp	r2, r3
    2286:	d911      	bls.n	22ac <udd_ep_transfer_process+0x13c>
    2288:	2304      	movs	r3, #4
    228a:	7ca2      	ldrb	r2, [r4, #18]
    228c:	4313      	orrs	r3, r2
    228e:	74a3      	strb	r3, [r4, #18]
    2290:	9b02      	ldr	r3, [sp, #8]
    2292:	1e5a      	subs	r2, r3, #1
    2294:	4b13      	ldr	r3, [pc, #76]	; (22e4 <udd_ep_transfer_process+0x174>)
    2296:	0192      	lsls	r2, r2, #6
    2298:	18d2      	adds	r2, r2, r3
    229a:	9b01      	ldr	r3, [sp, #4]
    229c:	9902      	ldr	r1, [sp, #8]
    229e:	47b8      	blx	r7
    22a0:	e7a2      	b.n	21e8 <udd_ep_transfer_process+0x78>
    22a2:	4b0d      	ldr	r3, [pc, #52]	; (22d8 <udd_ep_transfer_process+0x168>)
    22a4:	0028      	movs	r0, r5
    22a6:	4798      	blx	r3
    22a8:	1a6b      	subs	r3, r5, r1
    22aa:	e7e7      	b.n	227c <udd_ep_transfer_process+0x10c>
    22ac:	6862      	ldr	r2, [r4, #4]
    22ae:	1992      	adds	r2, r2, r6
    22b0:	e7f4      	b.n	229c <udd_ep_transfer_process+0x12c>
    22b2:	2201      	movs	r2, #1
    22b4:	7ca3      	ldrb	r3, [r4, #18]
    22b6:	4393      	bics	r3, r2
    22b8:	74a3      	strb	r3, [r4, #18]
    22ba:	6823      	ldr	r3, [r4, #0]
    22bc:	2b00      	cmp	r3, #0
    22be:	d100      	bne.n	22c2 <udd_ep_transfer_process+0x152>
    22c0:	e792      	b.n	21e8 <udd_ep_transfer_process+0x78>
    22c2:	002a      	movs	r2, r5
    22c4:	68e1      	ldr	r1, [r4, #12]
    22c6:	2000      	movs	r0, #0
    22c8:	e7a2      	b.n	2210 <udd_ep_transfer_process+0xa0>
    22ca:	46c0      	nop			; (mov r8, r8)
    22cc:	0000214d 	.word	0x0000214d
    22d0:	00001fff 	.word	0x00001fff
    22d4:	000045e9 	.word	0x000045e9
    22d8:	00004415 	.word	0x00004415
    22dc:	20000874 	.word	0x20000874
    22e0:	000030d1 	.word	0x000030d1
    22e4:	200007b4 	.word	0x200007b4
    22e8:	000046e9 	.word	0x000046e9
    22ec:	0000311d 	.word	0x0000311d

000022f0 <udd_ctrl_stall_data>:
    22f0:	2205      	movs	r2, #5
    22f2:	b510      	push	{r4, lr}
    22f4:	4b05      	ldr	r3, [pc, #20]	; (230c <udd_ctrl_stall_data+0x1c>)
    22f6:	4c06      	ldr	r4, [pc, #24]	; (2310 <udd_ctrl_stall_data+0x20>)
    22f8:	701a      	strb	r2, [r3, #0]
    22fa:	0020      	movs	r0, r4
    22fc:	2180      	movs	r1, #128	; 0x80
    22fe:	4b05      	ldr	r3, [pc, #20]	; (2314 <udd_ctrl_stall_data+0x24>)
    2300:	4798      	blx	r3
    2302:	2100      	movs	r1, #0
    2304:	0020      	movs	r0, r4
    2306:	4b04      	ldr	r3, [pc, #16]	; (2318 <udd_ctrl_stall_data+0x28>)
    2308:	4798      	blx	r3
    230a:	bd10      	pop	{r4, pc}
    230c:	200006ba 	.word	0x200006ba
    2310:	20000874 	.word	0x20000874
    2314:	00003057 	.word	0x00003057
    2318:	00003071 	.word	0x00003071

0000231c <_usb_on_bus_reset>:
    231c:	b537      	push	{r0, r1, r2, r4, r5, lr}
    231e:	0004      	movs	r4, r0
    2320:	4b1d      	ldr	r3, [pc, #116]	; (2398 <_usb_on_bus_reset+0x7c>)
    2322:	4798      	blx	r3
    2324:	2380      	movs	r3, #128	; 0x80
    2326:	6822      	ldr	r2, [r4, #0]
    2328:	ad01      	add	r5, sp, #4
    232a:	7293      	strb	r3, [r2, #10]
    232c:	0028      	movs	r0, r5
    232e:	4b1b      	ldr	r3, [pc, #108]	; (239c <_usb_on_bus_reset+0x80>)
    2330:	4798      	blx	r3
    2332:	2303      	movs	r3, #3
    2334:	0029      	movs	r1, r5
    2336:	706b      	strb	r3, [r5, #1]
    2338:	0020      	movs	r0, r4
    233a:	4b19      	ldr	r3, [pc, #100]	; (23a0 <_usb_on_bus_reset+0x84>)
    233c:	4798      	blx	r3
    233e:	4919      	ldr	r1, [pc, #100]	; (23a4 <_usb_on_bus_reset+0x88>)
    2340:	0020      	movs	r0, r4
    2342:	4b19      	ldr	r3, [pc, #100]	; (23a8 <_usb_on_bus_reset+0x8c>)
    2344:	4798      	blx	r3
    2346:	4d19      	ldr	r5, [pc, #100]	; (23ac <_usb_on_bus_reset+0x90>)
    2348:	4b19      	ldr	r3, [pc, #100]	; (23b0 <_usb_on_bus_reset+0x94>)
    234a:	2202      	movs	r2, #2
    234c:	2100      	movs	r1, #0
    234e:	0020      	movs	r0, r4
    2350:	47a8      	blx	r5
    2352:	2200      	movs	r2, #0
    2354:	4b17      	ldr	r3, [pc, #92]	; (23b4 <_usb_on_bus_reset+0x98>)
    2356:	0011      	movs	r1, r2
    2358:	0020      	movs	r0, r4
    235a:	47a8      	blx	r5
    235c:	4b16      	ldr	r3, [pc, #88]	; (23b8 <_usb_on_bus_reset+0x9c>)
    235e:	2201      	movs	r2, #1
    2360:	2100      	movs	r1, #0
    2362:	0020      	movs	r0, r4
    2364:	47a8      	blx	r5
    2366:	4d15      	ldr	r5, [pc, #84]	; (23bc <_usb_on_bus_reset+0xa0>)
    2368:	2202      	movs	r2, #2
    236a:	2100      	movs	r1, #0
    236c:	0020      	movs	r0, r4
    236e:	47a8      	blx	r5
    2370:	2200      	movs	r2, #0
    2372:	0020      	movs	r0, r4
    2374:	0011      	movs	r1, r2
    2376:	47a8      	blx	r5
    2378:	2201      	movs	r2, #1
    237a:	2100      	movs	r1, #0
    237c:	0020      	movs	r0, r4
    237e:	47a8      	blx	r5
    2380:	6821      	ldr	r1, [r4, #0]
    2382:	4a0f      	ldr	r2, [pc, #60]	; (23c0 <_usb_on_bus_reset+0xa4>)
    2384:	890b      	ldrh	r3, [r1, #8]
    2386:	401a      	ands	r2, r3
    2388:	2380      	movs	r3, #128	; 0x80
    238a:	00db      	lsls	r3, r3, #3
    238c:	4313      	orrs	r3, r2
    238e:	2200      	movs	r2, #0
    2390:	810b      	strh	r3, [r1, #8]
    2392:	4b0c      	ldr	r3, [pc, #48]	; (23c4 <_usb_on_bus_reset+0xa8>)
    2394:	701a      	strb	r2, [r3, #0]
    2396:	bd37      	pop	{r0, r1, r2, r4, r5, pc}
    2398:	00000aad 	.word	0x00000aad
    239c:	00002e6d 	.word	0x00002e6d
    23a0:	00002e7d 	.word	0x00002e7d
    23a4:	200009f4 	.word	0x200009f4
    23a8:	00003165 	.word	0x00003165
    23ac:	00002d05 	.word	0x00002d05
    23b0:	00002531 	.word	0x00002531
    23b4:	00002909 	.word	0x00002909
    23b8:	00002405 	.word	0x00002405
    23bc:	00002d55 	.word	0x00002d55
    23c0:	fffff3ff 	.word	0xfffff3ff
    23c4:	200006ba 	.word	0x200006ba

000023c8 <udd_ctrl_send_zlp_in>:
    23c8:	2203      	movs	r2, #3
    23ca:	b510      	push	{r4, lr}
    23cc:	4b07      	ldr	r3, [pc, #28]	; (23ec <udd_ctrl_send_zlp_in+0x24>)
    23ce:	4c08      	ldr	r4, [pc, #32]	; (23f0 <udd_ctrl_send_zlp_in+0x28>)
    23d0:	701a      	strb	r2, [r3, #0]
    23d2:	4908      	ldr	r1, [pc, #32]	; (23f4 <udd_ctrl_send_zlp_in+0x2c>)
    23d4:	0020      	movs	r0, r4
    23d6:	4b08      	ldr	r3, [pc, #32]	; (23f8 <udd_ctrl_send_zlp_in+0x30>)
    23d8:	4798      	blx	r3
    23da:	2300      	movs	r3, #0
    23dc:	4a07      	ldr	r2, [pc, #28]	; (23fc <udd_ctrl_send_zlp_in+0x34>)
    23de:	0019      	movs	r1, r3
    23e0:	6892      	ldr	r2, [r2, #8]
    23e2:	0020      	movs	r0, r4
    23e4:	4c06      	ldr	r4, [pc, #24]	; (2400 <udd_ctrl_send_zlp_in+0x38>)
    23e6:	47a0      	blx	r4
    23e8:	bd10      	pop	{r4, pc}
    23ea:	46c0      	nop			; (mov r8, r8)
    23ec:	200006ba 	.word	0x200006ba
    23f0:	20000874 	.word	0x20000874
    23f4:	200009f4 	.word	0x200009f4
    23f8:	00003165 	.word	0x00003165
    23fc:	200009dc 	.word	0x200009dc
    2400:	000030d1 	.word	0x000030d1

00002404 <_usb_ep0_on_tansfer_fail>:
    2404:	b510      	push	{r4, lr}
    2406:	7989      	ldrb	r1, [r1, #6]
    2408:	4b0c      	ldr	r3, [pc, #48]	; (243c <_usb_ep0_on_tansfer_fail+0x38>)
    240a:	b24a      	sxtb	r2, r1
    240c:	2a00      	cmp	r2, #0
    240e:	da0b      	bge.n	2428 <_usb_ep0_on_tansfer_fail+0x24>
    2410:	781b      	ldrb	r3, [r3, #0]
    2412:	2b01      	cmp	r3, #1
    2414:	d102      	bne.n	241c <_usb_ep0_on_tansfer_fail+0x18>
    2416:	4b0a      	ldr	r3, [pc, #40]	; (2440 <_usb_ep0_on_tansfer_fail+0x3c>)
    2418:	4798      	blx	r3
    241a:	bd10      	pop	{r4, pc}
    241c:	2b04      	cmp	r3, #4
    241e:	d1fc      	bne.n	241a <_usb_ep0_on_tansfer_fail+0x16>
    2420:	4808      	ldr	r0, [pc, #32]	; (2444 <_usb_ep0_on_tansfer_fail+0x40>)
    2422:	4b09      	ldr	r3, [pc, #36]	; (2448 <_usb_ep0_on_tansfer_fail+0x44>)
    2424:	4798      	blx	r3
    2426:	e7f8      	b.n	241a <_usb_ep0_on_tansfer_fail+0x16>
    2428:	781a      	ldrb	r2, [r3, #0]
    242a:	2a02      	cmp	r2, #2
    242c:	d102      	bne.n	2434 <_usb_ep0_on_tansfer_fail+0x30>
    242e:	3202      	adds	r2, #2
    2430:	701a      	strb	r2, [r3, #0]
    2432:	e7f2      	b.n	241a <_usb_ep0_on_tansfer_fail+0x16>
    2434:	2a03      	cmp	r2, #3
    2436:	d1f0      	bne.n	241a <_usb_ep0_on_tansfer_fail+0x16>
    2438:	e7f2      	b.n	2420 <_usb_ep0_on_tansfer_fail+0x1c>
    243a:	46c0      	nop			; (mov r8, r8)
    243c:	200006ba 	.word	0x200006ba
    2440:	000023c9 	.word	0x000023c9
    2444:	20000874 	.word	0x20000874
    2448:	00003057 	.word	0x00003057

0000244c <udd_ctrl_in_sent>:
    244c:	b570      	push	{r4, r5, r6, lr}
    244e:	4d1d      	ldr	r5, [pc, #116]	; (24c4 <udd_ctrl_in_sent+0x78>)
    2450:	4e1d      	ldr	r6, [pc, #116]	; (24c8 <udd_ctrl_in_sent+0x7c>)
    2452:	882b      	ldrh	r3, [r5, #0]
    2454:	89b4      	ldrh	r4, [r6, #12]
    2456:	1ae4      	subs	r4, r4, r3
    2458:	b2a4      	uxth	r4, r4
    245a:	2c00      	cmp	r4, #0
    245c:	d11b      	bne.n	2496 <udd_ctrl_in_sent+0x4a>
    245e:	4a1b      	ldr	r2, [pc, #108]	; (24cc <udd_ctrl_in_sent+0x80>)
    2460:	8811      	ldrh	r1, [r2, #0]
    2462:	185b      	adds	r3, r3, r1
    2464:	b29b      	uxth	r3, r3
    2466:	8013      	strh	r3, [r2, #0]
    2468:	88f2      	ldrh	r2, [r6, #6]
    246a:	429a      	cmp	r2, r3
    246c:	d003      	beq.n	2476 <udd_ctrl_in_sent+0x2a>
    246e:	4b18      	ldr	r3, [pc, #96]	; (24d0 <udd_ctrl_in_sent+0x84>)
    2470:	781b      	ldrb	r3, [r3, #0]
    2472:	2b00      	cmp	r3, #0
    2474:	d007      	beq.n	2486 <udd_ctrl_in_sent+0x3a>
    2476:	2204      	movs	r2, #4
    2478:	4b16      	ldr	r3, [pc, #88]	; (24d4 <udd_ctrl_in_sent+0x88>)
    247a:	4917      	ldr	r1, [pc, #92]	; (24d8 <udd_ctrl_in_sent+0x8c>)
    247c:	701a      	strb	r2, [r3, #0]
    247e:	4817      	ldr	r0, [pc, #92]	; (24dc <udd_ctrl_in_sent+0x90>)
    2480:	4b17      	ldr	r3, [pc, #92]	; (24e0 <udd_ctrl_in_sent+0x94>)
    2482:	4798      	blx	r3
    2484:	bd70      	pop	{r4, r5, r6, pc}
    2486:	6973      	ldr	r3, [r6, #20]
    2488:	2b00      	cmp	r3, #0
    248a:	d016      	beq.n	24ba <udd_ctrl_in_sent+0x6e>
    248c:	4798      	blx	r3
    248e:	2800      	cmp	r0, #0
    2490:	d013      	beq.n	24ba <udd_ctrl_in_sent+0x6e>
    2492:	802c      	strh	r4, [r5, #0]
    2494:	89b4      	ldrh	r4, [r6, #12]
    2496:	2c3f      	cmp	r4, #63	; 0x3f
    2498:	d90f      	bls.n	24ba <udd_ctrl_in_sent+0x6e>
    249a:	2200      	movs	r2, #0
    249c:	2440      	movs	r4, #64	; 0x40
    249e:	4b0c      	ldr	r3, [pc, #48]	; (24d0 <udd_ctrl_in_sent+0x84>)
    24a0:	701a      	strb	r2, [r3, #0]
    24a2:	882b      	ldrh	r3, [r5, #0]
    24a4:	68b2      	ldr	r2, [r6, #8]
    24a6:	2100      	movs	r1, #0
    24a8:	18d2      	adds	r2, r2, r3
    24aa:	480c      	ldr	r0, [pc, #48]	; (24dc <udd_ctrl_in_sent+0x90>)
    24ac:	0023      	movs	r3, r4
    24ae:	4e0d      	ldr	r6, [pc, #52]	; (24e4 <udd_ctrl_in_sent+0x98>)
    24b0:	47b0      	blx	r6
    24b2:	882b      	ldrh	r3, [r5, #0]
    24b4:	18e4      	adds	r4, r4, r3
    24b6:	802c      	strh	r4, [r5, #0]
    24b8:	e7e4      	b.n	2484 <udd_ctrl_in_sent+0x38>
    24ba:	2201      	movs	r2, #1
    24bc:	4b04      	ldr	r3, [pc, #16]	; (24d0 <udd_ctrl_in_sent+0x84>)
    24be:	701a      	strb	r2, [r3, #0]
    24c0:	e7ef      	b.n	24a2 <udd_ctrl_in_sent+0x56>
    24c2:	46c0      	nop			; (mov r8, r8)
    24c4:	200006b6 	.word	0x200006b6
    24c8:	200009dc 	.word	0x200009dc
    24cc:	200006b8 	.word	0x200006b8
    24d0:	200006b4 	.word	0x200006b4
    24d4:	200006ba 	.word	0x200006ba
    24d8:	200009f4 	.word	0x200009f4
    24dc:	20000874 	.word	0x20000874
    24e0:	00003165 	.word	0x00003165
    24e4:	000030d1 	.word	0x000030d1

000024e8 <_usb_on_sof_notify>:
    24e8:	b510      	push	{r4, lr}
    24ea:	4b01      	ldr	r3, [pc, #4]	; (24f0 <_usb_on_sof_notify+0x8>)
    24ec:	4798      	blx	r3
    24ee:	bd10      	pop	{r4, pc}
    24f0:	00000aed 	.word	0x00000aed

000024f4 <cpu_irq_restore.part.0>:
    24f4:	2201      	movs	r2, #1
    24f6:	4b03      	ldr	r3, [pc, #12]	; (2504 <cpu_irq_restore.part.0+0x10>)
    24f8:	701a      	strb	r2, [r3, #0]
    24fa:	f3bf 8f5f 	dmb	sy
    24fe:	b662      	cpsie	i
    2500:	4770      	bx	lr
    2502:	46c0      	nop			; (mov r8, r8)
    2504:	20000110 	.word	0x20000110

00002508 <udd_wait_clock_ready>:
    2508:	4b08      	ldr	r3, [pc, #32]	; (252c <udd_wait_clock_ready+0x24>)
    250a:	8b1a      	ldrh	r2, [r3, #24]
    250c:	0692      	lsls	r2, r2, #26
    250e:	d406      	bmi.n	251e <udd_wait_clock_ready+0x16>
    2510:	21d0      	movs	r1, #208	; 0xd0
    2512:	0109      	lsls	r1, r1, #4
    2514:	68da      	ldr	r2, [r3, #12]
    2516:	400a      	ands	r2, r1
    2518:	428a      	cmp	r2, r1
    251a:	d1fb      	bne.n	2514 <udd_wait_clock_ready+0xc>
    251c:	4770      	bx	lr
    251e:	2280      	movs	r2, #128	; 0x80
    2520:	0052      	lsls	r2, r2, #1
    2522:	68d9      	ldr	r1, [r3, #12]
    2524:	4211      	tst	r1, r2
    2526:	d0fc      	beq.n	2522 <udd_wait_clock_ready+0x1a>
    2528:	e7f8      	b.n	251c <udd_wait_clock_ready+0x14>
    252a:	46c0      	nop			; (mov r8, r8)
    252c:	40000c00 	.word	0x40000c00

00002530 <_usb_ep0_on_setup>:
    2530:	b570      	push	{r4, r5, r6, lr}
    2532:	4e27      	ldr	r6, [pc, #156]	; (25d0 <_usb_ep0_on_setup+0xa0>)
    2534:	000c      	movs	r4, r1
    2536:	7833      	ldrb	r3, [r6, #0]
    2538:	2b00      	cmp	r3, #0
    253a:	d006      	beq.n	254a <_usb_ep0_on_setup+0x1a>
    253c:	4b25      	ldr	r3, [pc, #148]	; (25d4 <_usb_ep0_on_setup+0xa4>)
    253e:	691b      	ldr	r3, [r3, #16]
    2540:	2b00      	cmp	r3, #0
    2542:	d000      	beq.n	2546 <_usb_ep0_on_setup+0x16>
    2544:	4798      	blx	r3
    2546:	2300      	movs	r3, #0
    2548:	7033      	strb	r3, [r6, #0]
    254a:	8823      	ldrh	r3, [r4, #0]
    254c:	2b08      	cmp	r3, #8
    254e:	d002      	beq.n	2556 <_usb_ep0_on_setup+0x26>
    2550:	4b21      	ldr	r3, [pc, #132]	; (25d8 <_usb_ep0_on_setup+0xa8>)
    2552:	4798      	blx	r3
    2554:	bd70      	pop	{r4, r5, r6, pc}
    2556:	4c21      	ldr	r4, [pc, #132]	; (25dc <_usb_ep0_on_setup+0xac>)
    2558:	4d1e      	ldr	r5, [pc, #120]	; (25d4 <_usb_ep0_on_setup+0xa4>)
    255a:	7823      	ldrb	r3, [r4, #0]
    255c:	702b      	strb	r3, [r5, #0]
    255e:	7863      	ldrb	r3, [r4, #1]
    2560:	706b      	strb	r3, [r5, #1]
    2562:	78e2      	ldrb	r2, [r4, #3]
    2564:	78a3      	ldrb	r3, [r4, #2]
    2566:	0212      	lsls	r2, r2, #8
    2568:	189b      	adds	r3, r3, r2
    256a:	806b      	strh	r3, [r5, #2]
    256c:	7962      	ldrb	r2, [r4, #5]
    256e:	7923      	ldrb	r3, [r4, #4]
    2570:	0212      	lsls	r2, r2, #8
    2572:	189b      	adds	r3, r3, r2
    2574:	80ab      	strh	r3, [r5, #4]
    2576:	79e2      	ldrb	r2, [r4, #7]
    2578:	79a3      	ldrb	r3, [r4, #6]
    257a:	0212      	lsls	r2, r2, #8
    257c:	189b      	adds	r3, r3, r2
    257e:	80eb      	strh	r3, [r5, #6]
    2580:	4b17      	ldr	r3, [pc, #92]	; (25e0 <_usb_ep0_on_setup+0xb0>)
    2582:	4798      	blx	r3
    2584:	2800      	cmp	r0, #0
    2586:	d0e3      	beq.n	2550 <_usb_ep0_on_setup+0x20>
    2588:	782b      	ldrb	r3, [r5, #0]
    258a:	2b7f      	cmp	r3, #127	; 0x7f
    258c:	d90d      	bls.n	25aa <_usb_ep0_on_setup+0x7a>
    258e:	2100      	movs	r1, #0
    2590:	4b14      	ldr	r3, [pc, #80]	; (25e4 <_usb_ep0_on_setup+0xb4>)
    2592:	0022      	movs	r2, r4
    2594:	8019      	strh	r1, [r3, #0]
    2596:	4b14      	ldr	r3, [pc, #80]	; (25e8 <_usb_ep0_on_setup+0xb8>)
    2598:	4814      	ldr	r0, [pc, #80]	; (25ec <_usb_ep0_on_setup+0xbc>)
    259a:	8019      	strh	r1, [r3, #0]
    259c:	2302      	movs	r3, #2
    259e:	4c14      	ldr	r4, [pc, #80]	; (25f0 <_usb_ep0_on_setup+0xc0>)
    25a0:	7033      	strb	r3, [r6, #0]
    25a2:	333e      	adds	r3, #62	; 0x3e
    25a4:	47a0      	blx	r4
    25a6:	4b13      	ldr	r3, [pc, #76]	; (25f4 <_usb_ep0_on_setup+0xc4>)
    25a8:	e7d3      	b.n	2552 <_usb_ep0_on_setup+0x22>
    25aa:	88eb      	ldrh	r3, [r5, #6]
    25ac:	2b00      	cmp	r3, #0
    25ae:	d101      	bne.n	25b4 <_usb_ep0_on_setup+0x84>
    25b0:	4b11      	ldr	r3, [pc, #68]	; (25f8 <_usb_ep0_on_setup+0xc8>)
    25b2:	e7ce      	b.n	2552 <_usb_ep0_on_setup+0x22>
    25b4:	2100      	movs	r1, #0
    25b6:	4b0b      	ldr	r3, [pc, #44]	; (25e4 <_usb_ep0_on_setup+0xb4>)
    25b8:	0022      	movs	r2, r4
    25ba:	8019      	strh	r1, [r3, #0]
    25bc:	4b0a      	ldr	r3, [pc, #40]	; (25e8 <_usb_ep0_on_setup+0xb8>)
    25be:	4c0c      	ldr	r4, [pc, #48]	; (25f0 <_usb_ep0_on_setup+0xc0>)
    25c0:	8019      	strh	r1, [r3, #0]
    25c2:	2301      	movs	r3, #1
    25c4:	4809      	ldr	r0, [pc, #36]	; (25ec <_usb_ep0_on_setup+0xbc>)
    25c6:	7033      	strb	r3, [r6, #0]
    25c8:	333f      	adds	r3, #63	; 0x3f
    25ca:	47a0      	blx	r4
    25cc:	e7c2      	b.n	2554 <_usb_ep0_on_setup+0x24>
    25ce:	46c0      	nop			; (mov r8, r8)
    25d0:	200006ba 	.word	0x200006ba
    25d4:	200009dc 	.word	0x200009dc
    25d8:	000022f1 	.word	0x000022f1
    25dc:	200009f4 	.word	0x200009f4
    25e0:	00000b25 	.word	0x00000b25
    25e4:	200006b8 	.word	0x200006b8
    25e8:	200006b6 	.word	0x200006b6
    25ec:	20000874 	.word	0x20000874
    25f0:	0000311d 	.word	0x0000311d
    25f4:	0000244d 	.word	0x0000244d
    25f8:	000023c9 	.word	0x000023c9

000025fc <udd_sleep_mode>:
    25fc:	2300      	movs	r3, #0
    25fe:	b5f0      	push	{r4, r5, r6, r7, lr}
    2600:	b085      	sub	sp, #20
    2602:	ac03      	add	r4, sp, #12
    2604:	7023      	strb	r3, [r4, #0]
    2606:	3301      	adds	r3, #1
    2608:	7063      	strb	r3, [r4, #1]
    260a:	70a3      	strb	r3, [r4, #2]
    260c:	70e3      	strb	r3, [r4, #3]
    260e:	4b16      	ldr	r3, [pc, #88]	; (2668 <udd_sleep_mode+0x6c>)
    2610:	0005      	movs	r5, r0
    2612:	781b      	ldrb	r3, [r3, #0]
    2614:	9301      	str	r3, [sp, #4]
    2616:	4283      	cmp	r3, r0
    2618:	d024      	beq.n	2664 <udd_sleep_mode+0x68>
    261a:	2800      	cmp	r0, #0
    261c:	d00e      	beq.n	263c <udd_sleep_mode+0x40>
    261e:	5c26      	ldrb	r6, [r4, r0]
    2620:	4f12      	ldr	r7, [pc, #72]	; (266c <udd_sleep_mode+0x70>)
    2622:	5dbb      	ldrb	r3, [r7, r6]
    2624:	2bff      	cmp	r3, #255	; 0xff
    2626:	d100      	bne.n	262a <udd_sleep_mode+0x2e>
    2628:	e7fe      	b.n	2628 <udd_sleep_mode+0x2c>
    262a:	4b11      	ldr	r3, [pc, #68]	; (2670 <udd_sleep_mode+0x74>)
    262c:	4798      	blx	r3
    262e:	5dbb      	ldrb	r3, [r7, r6]
    2630:	3301      	adds	r3, #1
    2632:	55bb      	strb	r3, [r7, r6]
    2634:	2800      	cmp	r0, #0
    2636:	d001      	beq.n	263c <udd_sleep_mode+0x40>
    2638:	4b0e      	ldr	r3, [pc, #56]	; (2674 <udd_sleep_mode+0x78>)
    263a:	4798      	blx	r3
    263c:	9b01      	ldr	r3, [sp, #4]
    263e:	2b00      	cmp	r3, #0
    2640:	d00e      	beq.n	2660 <udd_sleep_mode+0x64>
    2642:	5ce4      	ldrb	r4, [r4, r3]
    2644:	4e09      	ldr	r6, [pc, #36]	; (266c <udd_sleep_mode+0x70>)
    2646:	5d33      	ldrb	r3, [r6, r4]
    2648:	2b00      	cmp	r3, #0
    264a:	d100      	bne.n	264e <udd_sleep_mode+0x52>
    264c:	e7fe      	b.n	264c <udd_sleep_mode+0x50>
    264e:	4b08      	ldr	r3, [pc, #32]	; (2670 <udd_sleep_mode+0x74>)
    2650:	4798      	blx	r3
    2652:	5d33      	ldrb	r3, [r6, r4]
    2654:	3b01      	subs	r3, #1
    2656:	5533      	strb	r3, [r6, r4]
    2658:	2800      	cmp	r0, #0
    265a:	d001      	beq.n	2660 <udd_sleep_mode+0x64>
    265c:	4b05      	ldr	r3, [pc, #20]	; (2674 <udd_sleep_mode+0x78>)
    265e:	4798      	blx	r3
    2660:	4b01      	ldr	r3, [pc, #4]	; (2668 <udd_sleep_mode+0x6c>)
    2662:	701d      	strb	r5, [r3, #0]
    2664:	b005      	add	sp, #20
    2666:	bdf0      	pop	{r4, r5, r6, r7, pc}
    2668:	20000734 	.word	0x20000734
    266c:	20000754 	.word	0x20000754
    2670:	00002129 	.word	0x00002129
    2674:	000024f5 	.word	0x000024f5

00002678 <_usb_on_wakeup>:
    2678:	b570      	push	{r4, r5, r6, lr}
    267a:	4b0b      	ldr	r3, [pc, #44]	; (26a8 <_usb_on_wakeup+0x30>)
    267c:	4798      	blx	r3
    267e:	4c0b      	ldr	r4, [pc, #44]	; (26ac <_usb_on_wakeup+0x34>)
    2680:	4b0b      	ldr	r3, [pc, #44]	; (26b0 <_usb_on_wakeup+0x38>)
    2682:	2102      	movs	r1, #2
    2684:	0020      	movs	r0, r4
    2686:	4798      	blx	r3
    2688:	4d0a      	ldr	r5, [pc, #40]	; (26b4 <_usb_on_wakeup+0x3c>)
    268a:	2104      	movs	r1, #4
    268c:	0020      	movs	r0, r4
    268e:	47a8      	blx	r5
    2690:	4a09      	ldr	r2, [pc, #36]	; (26b8 <_usb_on_wakeup+0x40>)
    2692:	4b0a      	ldr	r3, [pc, #40]	; (26bc <_usb_on_wakeup+0x44>)
    2694:	2106      	movs	r1, #6
    2696:	0020      	movs	r0, r4
    2698:	4798      	blx	r3
    269a:	2106      	movs	r1, #6
    269c:	0020      	movs	r0, r4
    269e:	47a8      	blx	r5
    26a0:	2003      	movs	r0, #3
    26a2:	4b07      	ldr	r3, [pc, #28]	; (26c0 <_usb_on_wakeup+0x48>)
    26a4:	4798      	blx	r3
    26a6:	bd70      	pop	{r4, r5, r6, pc}
    26a8:	00002509 	.word	0x00002509
    26ac:	20000874 	.word	0x20000874
    26b0:	00002ce9 	.word	0x00002ce9
    26b4:	00002cc9 	.word	0x00002cc9
    26b8:	000026f1 	.word	0x000026f1
    26bc:	00002ca5 	.word	0x00002ca5
    26c0:	000025fd 	.word	0x000025fd

000026c4 <_usb_on_suspend>:
    26c4:	b510      	push	{r4, lr}
    26c6:	4c06      	ldr	r4, [pc, #24]	; (26e0 <_usb_on_suspend+0x1c>)
    26c8:	2104      	movs	r1, #4
    26ca:	0020      	movs	r0, r4
    26cc:	4b05      	ldr	r3, [pc, #20]	; (26e4 <_usb_on_suspend+0x20>)
    26ce:	4798      	blx	r3
    26d0:	2102      	movs	r1, #2
    26d2:	0020      	movs	r0, r4
    26d4:	4b04      	ldr	r3, [pc, #16]	; (26e8 <_usb_on_suspend+0x24>)
    26d6:	4798      	blx	r3
    26d8:	2001      	movs	r0, #1
    26da:	4b04      	ldr	r3, [pc, #16]	; (26ec <_usb_on_suspend+0x28>)
    26dc:	4798      	blx	r3
    26de:	bd10      	pop	{r4, pc}
    26e0:	20000874 	.word	0x20000874
    26e4:	00002ce9 	.word	0x00002ce9
    26e8:	00002cc9 	.word	0x00002cc9
    26ec:	000025fd 	.word	0x000025fd

000026f0 <_usb_device_lpm_suspend>:
    26f0:	b570      	push	{r4, r5, r6, lr}
    26f2:	000d      	movs	r5, r1
    26f4:	4c0d      	ldr	r4, [pc, #52]	; (272c <_usb_device_lpm_suspend+0x3c>)
    26f6:	2106      	movs	r1, #6
    26f8:	4e0d      	ldr	r6, [pc, #52]	; (2730 <_usb_device_lpm_suspend+0x40>)
    26fa:	0020      	movs	r0, r4
    26fc:	47b0      	blx	r6
    26fe:	2104      	movs	r1, #4
    2700:	0020      	movs	r0, r4
    2702:	47b0      	blx	r6
    2704:	2102      	movs	r1, #2
    2706:	4b0b      	ldr	r3, [pc, #44]	; (2734 <_usb_device_lpm_suspend+0x44>)
    2708:	0020      	movs	r0, r4
    270a:	4798      	blx	r3
    270c:	4b0a      	ldr	r3, [pc, #40]	; (2738 <_usb_device_lpm_suspend+0x48>)
    270e:	2002      	movs	r0, #2
    2710:	4798      	blx	r3
    2712:	682b      	ldr	r3, [r5, #0]
    2714:	2b00      	cmp	r3, #0
    2716:	d001      	beq.n	271c <_usb_device_lpm_suspend+0x2c>
    2718:	4b08      	ldr	r3, [pc, #32]	; (273c <_usb_device_lpm_suspend+0x4c>)
    271a:	4798      	blx	r3
    271c:	682b      	ldr	r3, [r5, #0]
    271e:	2b00      	cmp	r3, #0
    2720:	d101      	bne.n	2726 <_usb_device_lpm_suspend+0x36>
    2722:	4b07      	ldr	r3, [pc, #28]	; (2740 <_usb_device_lpm_suspend+0x50>)
    2724:	4798      	blx	r3
    2726:	4b07      	ldr	r3, [pc, #28]	; (2744 <_usb_device_lpm_suspend+0x54>)
    2728:	4798      	blx	r3
    272a:	bd70      	pop	{r4, r5, r6, pc}
    272c:	20000874 	.word	0x20000874
    2730:	00002ce9 	.word	0x00002ce9
    2734:	00002cc9 	.word	0x00002cc9
    2738:	000025fd 	.word	0x000025fd
    273c:	00003a39 	.word	0x00003a39
    2740:	00003a37 	.word	0x00003a37
    2744:	00003a35 	.word	0x00003a35

00002748 <udd_ep_abort>:
    2748:	b570      	push	{r4, r5, r6, lr}
    274a:	0004      	movs	r4, r0
    274c:	0001      	movs	r1, r0
    274e:	4b0a      	ldr	r3, [pc, #40]	; (2778 <udd_ep_abort+0x30>)
    2750:	480a      	ldr	r0, [pc, #40]	; (277c <udd_ep_abort+0x34>)
    2752:	4798      	blx	r3
    2754:	4b0a      	ldr	r3, [pc, #40]	; (2780 <udd_ep_abort+0x38>)
    2756:	0020      	movs	r0, r4
    2758:	4798      	blx	r3
    275a:	0003      	movs	r3, r0
    275c:	7c82      	ldrb	r2, [r0, #18]
    275e:	2001      	movs	r0, #1
    2760:	4202      	tst	r2, r0
    2762:	d007      	beq.n	2774 <udd_ep_abort+0x2c>
    2764:	681d      	ldr	r5, [r3, #0]
    2766:	4382      	bics	r2, r0
    2768:	749a      	strb	r2, [r3, #18]
    276a:	2d00      	cmp	r5, #0
    276c:	d002      	beq.n	2774 <udd_ep_abort+0x2c>
    276e:	0022      	movs	r2, r4
    2770:	68d9      	ldr	r1, [r3, #12]
    2772:	47a8      	blx	r5
    2774:	bd70      	pop	{r4, r5, r6, pc}
    2776:	46c0      	nop			; (mov r8, r8)
    2778:	0000300d 	.word	0x0000300d
    277c:	20000874 	.word	0x20000874
    2780:	0000214d 	.word	0x0000214d

00002784 <udd_is_high_speed>:
    2784:	2000      	movs	r0, #0
    2786:	4770      	bx	lr

00002788 <udd_get_frame_number>:
    2788:	4b02      	ldr	r3, [pc, #8]	; (2794 <udd_get_frame_number+0xc>)
    278a:	681b      	ldr	r3, [r3, #0]
    278c:	8a18      	ldrh	r0, [r3, #16]
    278e:	0480      	lsls	r0, r0, #18
    2790:	0d40      	lsrs	r0, r0, #21
    2792:	4770      	bx	lr
    2794:	20000874 	.word	0x20000874

00002798 <udd_get_micro_frame_number>:
    2798:	4b02      	ldr	r3, [pc, #8]	; (27a4 <udd_get_micro_frame_number+0xc>)
    279a:	681b      	ldr	r3, [r3, #0]
    279c:	8a18      	ldrh	r0, [r3, #16]
    279e:	b280      	uxth	r0, r0
    27a0:	4770      	bx	lr
    27a2:	46c0      	nop			; (mov r8, r8)
    27a4:	20000874 	.word	0x20000874

000027a8 <udd_ep_free>:
    27a8:	b5f7      	push	{r0, r1, r2, r4, r5, r6, r7, lr}
    27aa:	0004      	movs	r4, r0
    27ac:	2700      	movs	r7, #0
    27ae:	ad01      	add	r5, sp, #4
    27b0:	0028      	movs	r0, r5
    27b2:	4b0c      	ldr	r3, [pc, #48]	; (27e4 <udd_ep_free+0x3c>)
    27b4:	4798      	blx	r3
    27b6:	0020      	movs	r0, r4
    27b8:	4b0b      	ldr	r3, [pc, #44]	; (27e8 <udd_ep_free+0x40>)
    27ba:	4798      	blx	r3
    27bc:	4e0b      	ldr	r6, [pc, #44]	; (27ec <udd_ep_free+0x44>)
    27be:	0029      	movs	r1, r5
    27c0:	0030      	movs	r0, r6
    27c2:	4b0b      	ldr	r3, [pc, #44]	; (27f0 <udd_ep_free+0x48>)
    27c4:	70ef      	strb	r7, [r5, #3]
    27c6:	702c      	strb	r4, [r5, #0]
    27c8:	4798      	blx	r3
    27ca:	210f      	movs	r1, #15
    27cc:	003a      	movs	r2, r7
    27ce:	4021      	ands	r1, r4
    27d0:	0030      	movs	r0, r6
    27d2:	4b08      	ldr	r3, [pc, #32]	; (27f4 <udd_ep_free+0x4c>)
    27d4:	4798      	blx	r3
    27d6:	003a      	movs	r2, r7
    27d8:	0030      	movs	r0, r6
    27da:	0021      	movs	r1, r4
    27dc:	4b06      	ldr	r3, [pc, #24]	; (27f8 <udd_ep_free+0x50>)
    27de:	4798      	blx	r3
    27e0:	bdf7      	pop	{r0, r1, r2, r4, r5, r6, r7, pc}
    27e2:	46c0      	nop			; (mov r8, r8)
    27e4:	00002e6d 	.word	0x00002e6d
    27e8:	00002749 	.word	0x00002749
    27ec:	20000874 	.word	0x20000874
    27f0:	00002e7d 	.word	0x00002e7d
    27f4:	00002d2d 	.word	0x00002d2d
    27f8:	00002de1 	.word	0x00002de1

000027fc <udd_ep_alloc>:
    27fc:	b5f7      	push	{r0, r1, r2, r4, r5, r6, r7, lr}
    27fe:	0006      	movs	r6, r0
    2800:	ac01      	add	r4, sp, #4
    2802:	4b29      	ldr	r3, [pc, #164]	; (28a8 <udd_ep_alloc+0xac>)
    2804:	0020      	movs	r0, r4
    2806:	000f      	movs	r7, r1
    2808:	0015      	movs	r5, r2
    280a:	4798      	blx	r3
    280c:	7026      	strb	r6, [r4, #0]
    280e:	2300      	movs	r3, #0
    2810:	2d08      	cmp	r5, #8
    2812:	d910      	bls.n	2836 <udd_ep_alloc+0x3a>
    2814:	2301      	movs	r3, #1
    2816:	2d10      	cmp	r5, #16
    2818:	d90d      	bls.n	2836 <udd_ep_alloc+0x3a>
    281a:	2302      	movs	r3, #2
    281c:	2d20      	cmp	r5, #32
    281e:	d90a      	bls.n	2836 <udd_ep_alloc+0x3a>
    2820:	2303      	movs	r3, #3
    2822:	2d40      	cmp	r5, #64	; 0x40
    2824:	d907      	bls.n	2836 <udd_ep_alloc+0x3a>
    2826:	2304      	movs	r3, #4
    2828:	2d80      	cmp	r5, #128	; 0x80
    282a:	d904      	bls.n	2836 <udd_ep_alloc+0x3a>
    282c:	2380      	movs	r3, #128	; 0x80
    282e:	005b      	lsls	r3, r3, #1
    2830:	429d      	cmp	r5, r3
    2832:	d824      	bhi.n	287e <udd_ep_alloc+0x82>
    2834:	3bfb      	subs	r3, #251	; 0xfb
    2836:	7063      	strb	r3, [r4, #1]
    2838:	0030      	movs	r0, r6
    283a:	4b1c      	ldr	r3, [pc, #112]	; (28ac <udd_ep_alloc+0xb0>)
    283c:	4798      	blx	r3
    283e:	2303      	movs	r3, #3
    2840:	8205      	strh	r5, [r0, #16]
    2842:	401f      	ands	r7, r3
    2844:	2f01      	cmp	r7, #1
    2846:	d128      	bne.n	289a <udd_ep_alloc+0x9e>
    2848:	3b01      	subs	r3, #1
    284a:	4d19      	ldr	r5, [pc, #100]	; (28b0 <udd_ep_alloc+0xb4>)
    284c:	70e3      	strb	r3, [r4, #3]
    284e:	0021      	movs	r1, r4
    2850:	0028      	movs	r0, r5
    2852:	4b18      	ldr	r3, [pc, #96]	; (28b4 <udd_ep_alloc+0xb8>)
    2854:	4798      	blx	r3
    2856:	1e04      	subs	r4, r0, #0
    2858:	d11b      	bne.n	2892 <udd_ep_alloc+0x96>
    285a:	210f      	movs	r1, #15
    285c:	4b16      	ldr	r3, [pc, #88]	; (28b8 <udd_ep_alloc+0xbc>)
    285e:	0002      	movs	r2, r0
    2860:	4031      	ands	r1, r6
    2862:	0028      	movs	r0, r5
    2864:	4f15      	ldr	r7, [pc, #84]	; (28bc <udd_ep_alloc+0xc0>)
    2866:	47b8      	blx	r7
    2868:	0022      	movs	r2, r4
    286a:	0031      	movs	r1, r6
    286c:	4c14      	ldr	r4, [pc, #80]	; (28c0 <udd_ep_alloc+0xc4>)
    286e:	0028      	movs	r0, r5
    2870:	47a0      	blx	r4
    2872:	2201      	movs	r2, #1
    2874:	0031      	movs	r1, r6
    2876:	0028      	movs	r0, r5
    2878:	47a0      	blx	r4
    287a:	2001      	movs	r0, #1
    287c:	e00a      	b.n	2894 <udd_ep_alloc+0x98>
    287e:	2380      	movs	r3, #128	; 0x80
    2880:	009b      	lsls	r3, r3, #2
    2882:	429d      	cmp	r5, r3
    2884:	d802      	bhi.n	288c <udd_ep_alloc+0x90>
    2886:	3bfb      	subs	r3, #251	; 0xfb
    2888:	3bff      	subs	r3, #255	; 0xff
    288a:	e7d4      	b.n	2836 <udd_ep_alloc+0x3a>
    288c:	4b0d      	ldr	r3, [pc, #52]	; (28c4 <udd_ep_alloc+0xc8>)
    288e:	429d      	cmp	r5, r3
    2890:	d901      	bls.n	2896 <udd_ep_alloc+0x9a>
    2892:	2000      	movs	r0, #0
    2894:	bdfe      	pop	{r1, r2, r3, r4, r5, r6, r7, pc}
    2896:	2307      	movs	r3, #7
    2898:	e7cd      	b.n	2836 <udd_ep_alloc+0x3a>
    289a:	2f02      	cmp	r7, #2
    289c:	d0d5      	beq.n	284a <udd_ep_alloc+0x4e>
    289e:	2f03      	cmp	r7, #3
    28a0:	d1f7      	bne.n	2892 <udd_ep_alloc+0x96>
    28a2:	2304      	movs	r3, #4
    28a4:	e7d1      	b.n	284a <udd_ep_alloc+0x4e>
    28a6:	46c0      	nop			; (mov r8, r8)
    28a8:	00002e6d 	.word	0x00002e6d
    28ac:	0000214d 	.word	0x0000214d
    28b0:	20000874 	.word	0x20000874
    28b4:	00002e7d 	.word	0x00002e7d
    28b8:	00002171 	.word	0x00002171
    28bc:	00002d05 	.word	0x00002d05
    28c0:	00002d55 	.word	0x00002d55
    28c4:	000003ff 	.word	0x000003ff

000028c8 <udd_ep_is_halted>:
    28c8:	b510      	push	{r4, lr}
    28ca:	0001      	movs	r1, r0
    28cc:	4b01      	ldr	r3, [pc, #4]	; (28d4 <udd_ep_is_halted+0xc>)
    28ce:	4802      	ldr	r0, [pc, #8]	; (28d8 <udd_ep_is_halted+0x10>)
    28d0:	4798      	blx	r3
    28d2:	bd10      	pop	{r4, pc}
    28d4:	00003039 	.word	0x00003039
    28d8:	20000874 	.word	0x20000874

000028dc <udd_ep_set_halt>:
    28dc:	230f      	movs	r3, #15
    28de:	b510      	push	{r4, lr}
    28e0:	4003      	ands	r3, r0
    28e2:	0004      	movs	r4, r0
    28e4:	2000      	movs	r0, #0
    28e6:	2b03      	cmp	r3, #3
    28e8:	d807      	bhi.n	28fa <udd_ep_set_halt+0x1e>
    28ea:	0021      	movs	r1, r4
    28ec:	4803      	ldr	r0, [pc, #12]	; (28fc <udd_ep_set_halt+0x20>)
    28ee:	4b04      	ldr	r3, [pc, #16]	; (2900 <udd_ep_set_halt+0x24>)
    28f0:	4798      	blx	r3
    28f2:	0020      	movs	r0, r4
    28f4:	4b03      	ldr	r3, [pc, #12]	; (2904 <udd_ep_set_halt+0x28>)
    28f6:	4798      	blx	r3
    28f8:	2001      	movs	r0, #1
    28fa:	bd10      	pop	{r4, pc}
    28fc:	20000874 	.word	0x20000874
    2900:	00003057 	.word	0x00003057
    2904:	00002749 	.word	0x00002749

00002908 <_usb_ep0_on_tansfer_ok>:
    2908:	b5f8      	push	{r3, r4, r5, r6, r7, lr}
    290a:	4f29      	ldr	r7, [pc, #164]	; (29b0 <_usb_ep0_on_tansfer_ok+0xa8>)
    290c:	783b      	ldrb	r3, [r7, #0]
    290e:	2b01      	cmp	r3, #1
    2910:	d141      	bne.n	2996 <_usb_ep0_on_tansfer_ok+0x8e>
    2912:	4a28      	ldr	r2, [pc, #160]	; (29b4 <_usb_ep0_on_tansfer_ok+0xac>)
    2914:	4d28      	ldr	r5, [pc, #160]	; (29b8 <_usb_ep0_on_tansfer_ok+0xb0>)
    2916:	880e      	ldrh	r6, [r1, #0]
    2918:	8814      	ldrh	r4, [r2, #0]
    291a:	89ab      	ldrh	r3, [r5, #12]
    291c:	19a2      	adds	r2, r4, r6
    291e:	4293      	cmp	r3, r2
    2920:	da01      	bge.n	2926 <_usb_ep0_on_tansfer_ok+0x1e>
    2922:	1b1e      	subs	r6, r3, r4
    2924:	b2b6      	uxth	r6, r6
    2926:	68ab      	ldr	r3, [r5, #8]
    2928:	0032      	movs	r2, r6
    292a:	1918      	adds	r0, r3, r4
    292c:	4923      	ldr	r1, [pc, #140]	; (29bc <_usb_ep0_on_tansfer_ok+0xb4>)
    292e:	4b24      	ldr	r3, [pc, #144]	; (29c0 <_usb_ep0_on_tansfer_ok+0xb8>)
    2930:	19a4      	adds	r4, r4, r6
    2932:	4798      	blx	r3
    2934:	b2a3      	uxth	r3, r4
    2936:	4c1f      	ldr	r4, [pc, #124]	; (29b4 <_usb_ep0_on_tansfer_ok+0xac>)
    2938:	8023      	strh	r3, [r4, #0]
    293a:	2e40      	cmp	r6, #64	; 0x40
    293c:	d105      	bne.n	294a <_usb_ep0_on_tansfer_ok+0x42>
    293e:	4e21      	ldr	r6, [pc, #132]	; (29c4 <_usb_ep0_on_tansfer_ok+0xbc>)
    2940:	88e9      	ldrh	r1, [r5, #6]
    2942:	8832      	ldrh	r2, [r6, #0]
    2944:	18d2      	adds	r2, r2, r3
    2946:	4291      	cmp	r1, r2
    2948:	dc0f      	bgt.n	296a <_usb_ep0_on_tansfer_ok+0x62>
    294a:	81ab      	strh	r3, [r5, #12]
    294c:	696b      	ldr	r3, [r5, #20]
    294e:	2b00      	cmp	r3, #0
    2950:	d008      	beq.n	2964 <_usb_ep0_on_tansfer_ok+0x5c>
    2952:	4798      	blx	r3
    2954:	2800      	cmp	r0, #0
    2956:	d105      	bne.n	2964 <_usb_ep0_on_tansfer_ok+0x5c>
    2958:	2305      	movs	r3, #5
    295a:	2000      	movs	r0, #0
    295c:	703b      	strb	r3, [r7, #0]
    295e:	4b1a      	ldr	r3, [pc, #104]	; (29c8 <_usb_ep0_on_tansfer_ok+0xc0>)
    2960:	4798      	blx	r3
    2962:	bdf8      	pop	{r3, r4, r5, r6, r7, pc}
    2964:	4b19      	ldr	r3, [pc, #100]	; (29cc <_usb_ep0_on_tansfer_ok+0xc4>)
    2966:	4798      	blx	r3
    2968:	e7fb      	b.n	2962 <_usb_ep0_on_tansfer_ok+0x5a>
    296a:	89aa      	ldrh	r2, [r5, #12]
    296c:	429a      	cmp	r2, r3
    296e:	d10b      	bne.n	2988 <_usb_ep0_on_tansfer_ok+0x80>
    2970:	696b      	ldr	r3, [r5, #20]
    2972:	2b00      	cmp	r3, #0
    2974:	d0f0      	beq.n	2958 <_usb_ep0_on_tansfer_ok+0x50>
    2976:	4798      	blx	r3
    2978:	2800      	cmp	r0, #0
    297a:	d0ed      	beq.n	2958 <_usb_ep0_on_tansfer_ok+0x50>
    297c:	8833      	ldrh	r3, [r6, #0]
    297e:	8822      	ldrh	r2, [r4, #0]
    2980:	189b      	adds	r3, r3, r2
    2982:	8033      	strh	r3, [r6, #0]
    2984:	2300      	movs	r3, #0
    2986:	8023      	strh	r3, [r4, #0]
    2988:	2340      	movs	r3, #64	; 0x40
    298a:	4a0c      	ldr	r2, [pc, #48]	; (29bc <_usb_ep0_on_tansfer_ok+0xb4>)
    298c:	2100      	movs	r1, #0
    298e:	4c10      	ldr	r4, [pc, #64]	; (29d0 <_usb_ep0_on_tansfer_ok+0xc8>)
    2990:	4810      	ldr	r0, [pc, #64]	; (29d4 <_usb_ep0_on_tansfer_ok+0xcc>)
    2992:	47a0      	blx	r4
    2994:	e7e5      	b.n	2962 <_usb_ep0_on_tansfer_ok+0x5a>
    2996:	2b02      	cmp	r3, #2
    2998:	d101      	bne.n	299e <_usb_ep0_on_tansfer_ok+0x96>
    299a:	4b0f      	ldr	r3, [pc, #60]	; (29d8 <_usb_ep0_on_tansfer_ok+0xd0>)
    299c:	e7e3      	b.n	2966 <_usb_ep0_on_tansfer_ok+0x5e>
    299e:	4b06      	ldr	r3, [pc, #24]	; (29b8 <_usb_ep0_on_tansfer_ok+0xb0>)
    29a0:	691b      	ldr	r3, [r3, #16]
    29a2:	2b00      	cmp	r3, #0
    29a4:	d000      	beq.n	29a8 <_usb_ep0_on_tansfer_ok+0xa0>
    29a6:	4798      	blx	r3
    29a8:	2300      	movs	r3, #0
    29aa:	703b      	strb	r3, [r7, #0]
    29ac:	e7d9      	b.n	2962 <_usb_ep0_on_tansfer_ok+0x5a>
    29ae:	46c0      	nop			; (mov r8, r8)
    29b0:	200006ba 	.word	0x200006ba
    29b4:	200006b6 	.word	0x200006b6
    29b8:	200009dc 	.word	0x200009dc
    29bc:	200009f4 	.word	0x200009f4
    29c0:	000046e9 	.word	0x000046e9
    29c4:	200006b8 	.word	0x200006b8
    29c8:	000028dd 	.word	0x000028dd
    29cc:	000023c9 	.word	0x000023c9
    29d0:	0000311d 	.word	0x0000311d
    29d4:	20000874 	.word	0x20000874
    29d8:	0000244d 	.word	0x0000244d

000029dc <udd_ep_clear_halt>:
    29dc:	230f      	movs	r3, #15
    29de:	b570      	push	{r4, r5, r6, lr}
    29e0:	4003      	ands	r3, r0
    29e2:	0006      	movs	r6, r0
    29e4:	2400      	movs	r4, #0
    29e6:	2b03      	cmp	r3, #3
    29e8:	d80e      	bhi.n	2a08 <udd_ep_clear_halt+0x2c>
    29ea:	4b08      	ldr	r3, [pc, #32]	; (2a0c <udd_ep_clear_halt+0x30>)
    29ec:	4798      	blx	r3
    29ee:	0005      	movs	r5, r0
    29f0:	4b07      	ldr	r3, [pc, #28]	; (2a10 <udd_ep_clear_halt+0x34>)
    29f2:	0031      	movs	r1, r6
    29f4:	4807      	ldr	r0, [pc, #28]	; (2a14 <udd_ep_clear_halt+0x38>)
    29f6:	4798      	blx	r3
    29f8:	7cab      	ldrb	r3, [r5, #18]
    29fa:	3401      	adds	r4, #1
    29fc:	4223      	tst	r3, r4
    29fe:	d003      	beq.n	2a08 <udd_ep_clear_halt+0x2c>
    2a00:	43a3      	bics	r3, r4
    2a02:	74ab      	strb	r3, [r5, #18]
    2a04:	682b      	ldr	r3, [r5, #0]
    2a06:	4798      	blx	r3
    2a08:	0020      	movs	r0, r4
    2a0a:	bd70      	pop	{r4, r5, r6, pc}
    2a0c:	0000214d 	.word	0x0000214d
    2a10:	00003071 	.word	0x00003071
    2a14:	20000874 	.word	0x20000874

00002a18 <udd_ep_run>:
    2a18:	b5f0      	push	{r4, r5, r6, r7, lr}
    2a1a:	b085      	sub	sp, #20
    2a1c:	9203      	str	r2, [sp, #12]
    2a1e:	001e      	movs	r6, r3
    2a20:	0002      	movs	r2, r0
    2a22:	230f      	movs	r3, #15
    2a24:	401a      	ands	r2, r3
    2a26:	9002      	str	r0, [sp, #8]
    2a28:	000d      	movs	r5, r1
    2a2a:	9201      	str	r2, [sp, #4]
    2a2c:	2a03      	cmp	r2, #3
    2a2e:	d903      	bls.n	2a38 <udd_ep_run+0x20>
    2a30:	2700      	movs	r7, #0
    2a32:	0038      	movs	r0, r7
    2a34:	b005      	add	sp, #20
    2a36:	bdf0      	pop	{r4, r5, r6, r7, pc}
    2a38:	9802      	ldr	r0, [sp, #8]
    2a3a:	4b4a      	ldr	r3, [pc, #296]	; (2b64 <udd_ep_run+0x14c>)
    2a3c:	4798      	blx	r3
    2a3e:	1e07      	subs	r7, r0, #0
    2a40:	d1f6      	bne.n	2a30 <udd_ep_run+0x18>
    2a42:	4b49      	ldr	r3, [pc, #292]	; (2b68 <udd_ep_run+0x150>)
    2a44:	9802      	ldr	r0, [sp, #8]
    2a46:	4798      	blx	r3
    2a48:	0004      	movs	r4, r0
    2a4a:	4b48      	ldr	r3, [pc, #288]	; (2b6c <udd_ep_run+0x154>)
    2a4c:	4798      	blx	r3
    2a4e:	2301      	movs	r3, #1
    2a50:	7ca2      	ldrb	r2, [r4, #18]
    2a52:	421a      	tst	r2, r3
    2a54:	d004      	beq.n	2a60 <udd_ep_run+0x48>
    2a56:	2800      	cmp	r0, #0
    2a58:	d0ea      	beq.n	2a30 <udd_ep_run+0x18>
    2a5a:	4b45      	ldr	r3, [pc, #276]	; (2b70 <udd_ep_run+0x158>)
    2a5c:	4798      	blx	r3
    2a5e:	e7e8      	b.n	2a32 <udd_ep_run+0x1a>
    2a60:	4313      	orrs	r3, r2
    2a62:	74a3      	strb	r3, [r4, #18]
    2a64:	2800      	cmp	r0, #0
    2a66:	d001      	beq.n	2a6c <udd_ep_run+0x54>
    2a68:	4b41      	ldr	r3, [pc, #260]	; (2b70 <udd_ep_run+0x158>)
    2a6a:	4798      	blx	r3
    2a6c:	9b03      	ldr	r3, [sp, #12]
    2a6e:	2202      	movs	r2, #2
    2a70:	6063      	str	r3, [r4, #4]
    2a72:	2300      	movs	r3, #0
    2a74:	60e3      	str	r3, [r4, #12]
    2a76:	9b0a      	ldr	r3, [sp, #40]	; 0x28
    2a78:	60a6      	str	r6, [r4, #8]
    2a7a:	6023      	str	r3, [r4, #0]
    2a7c:	2301      	movs	r3, #1
    2a7e:	401d      	ands	r5, r3
    2a80:	0069      	lsls	r1, r5, #1
    2a82:	7ca5      	ldrb	r5, [r4, #18]
    2a84:	4395      	bics	r5, r2
    2a86:	430d      	orrs	r5, r1
    2a88:	2104      	movs	r1, #4
    2a8a:	438d      	bics	r5, r1
    2a8c:	4669      	mov	r1, sp
    2a8e:	7a09      	ldrb	r1, [r1, #8]
    2a90:	74a5      	strb	r5, [r4, #18]
    2a92:	b249      	sxtb	r1, r1
    2a94:	2900      	cmp	r1, #0
    2a96:	da3b      	bge.n	2b10 <udd_ep_run+0xf8>
    2a98:	b2ed      	uxtb	r5, r5
    2a9a:	2e00      	cmp	r6, #0
    2a9c:	d026      	beq.n	2aec <udd_ep_run+0xd4>
    2a9e:	4b35      	ldr	r3, [pc, #212]	; (2b74 <udd_ep_run+0x15c>)
    2aa0:	b2b6      	uxth	r6, r6
    2aa2:	429e      	cmp	r6, r3
    2aa4:	d906      	bls.n	2ab4 <udd_ep_run+0x9c>
    2aa6:	0018      	movs	r0, r3
    2aa8:	8a21      	ldrh	r1, [r4, #16]
    2aaa:	4b33      	ldr	r3, [pc, #204]	; (2b78 <udd_ep_run+0x160>)
    2aac:	4798      	blx	r3
    2aae:	4b31      	ldr	r3, [pc, #196]	; (2b74 <udd_ep_run+0x15c>)
    2ab0:	1a5e      	subs	r6, r3, r1
    2ab2:	b2b6      	uxth	r6, r6
    2ab4:	07ab      	lsls	r3, r5, #30
    2ab6:	d507      	bpl.n	2ac8 <udd_ep_run+0xb0>
    2ab8:	8a21      	ldrh	r1, [r4, #16]
    2aba:	0030      	movs	r0, r6
    2abc:	4b2f      	ldr	r3, [pc, #188]	; (2b7c <udd_ep_run+0x164>)
    2abe:	4798      	blx	r3
    2ac0:	b289      	uxth	r1, r1
    2ac2:	4248      	negs	r0, r1
    2ac4:	4148      	adcs	r0, r1
    2ac6:	b2c7      	uxtb	r7, r0
    2ac8:	2001      	movs	r0, #1
    2aca:	2302      	movs	r3, #2
    2acc:	4038      	ands	r0, r7
    2ace:	0041      	lsls	r1, r0, #1
    2ad0:	7ca0      	ldrb	r0, [r4, #18]
    2ad2:	4398      	bics	r0, r3
    2ad4:	4308      	orrs	r0, r1
    2ad6:	74a0      	strb	r0, [r4, #18]
    2ad8:	0033      	movs	r3, r6
    2ada:	9a03      	ldr	r2, [sp, #12]
    2adc:	9901      	ldr	r1, [sp, #4]
    2ade:	4828      	ldr	r0, [pc, #160]	; (2b80 <udd_ep_run+0x168>)
    2ae0:	4c28      	ldr	r4, [pc, #160]	; (2b84 <udd_ep_run+0x16c>)
    2ae2:	47a0      	blx	r4
    2ae4:	4243      	negs	r3, r0
    2ae6:	4158      	adcs	r0, r3
    2ae8:	b2c7      	uxtb	r7, r0
    2aea:	e7a2      	b.n	2a32 <udd_ep_run+0x1a>
    2aec:	4215      	tst	r5, r2
    2aee:	d002      	beq.n	2af6 <udd_ep_run+0xde>
    2af0:	4395      	bics	r5, r2
    2af2:	74a5      	strb	r5, [r4, #18]
    2af4:	e7f0      	b.n	2ad8 <udd_ep_run+0xc0>
    2af6:	439d      	bics	r5, r3
    2af8:	74a5      	strb	r5, [r4, #18]
    2afa:	9b0a      	ldr	r3, [sp, #40]	; 0x28
    2afc:	2b00      	cmp	r3, #0
    2afe:	d101      	bne.n	2b04 <udd_ep_run+0xec>
    2b00:	2701      	movs	r7, #1
    2b02:	e796      	b.n	2a32 <udd_ep_run+0x1a>
    2b04:	2100      	movs	r1, #0
    2b06:	9a02      	ldr	r2, [sp, #8]
    2b08:	0008      	movs	r0, r1
    2b0a:	9b0a      	ldr	r3, [sp, #40]	; 0x28
    2b0c:	4798      	blx	r3
    2b0e:	e7f7      	b.n	2b00 <udd_ep_run+0xe8>
    2b10:	2e00      	cmp	r6, #0
    2b12:	d022      	beq.n	2b5a <udd_ep_run+0x142>
    2b14:	8a27      	ldrh	r7, [r4, #16]
    2b16:	4d17      	ldr	r5, [pc, #92]	; (2b74 <udd_ep_run+0x15c>)
    2b18:	b2b6      	uxth	r6, r6
    2b1a:	0039      	movs	r1, r7
    2b1c:	42ae      	cmp	r6, r5
    2b1e:	d916      	bls.n	2b4e <udd_ep_run+0x136>
    2b20:	4b15      	ldr	r3, [pc, #84]	; (2b78 <udd_ep_run+0x160>)
    2b22:	0028      	movs	r0, r5
    2b24:	4798      	blx	r3
    2b26:	1a6b      	subs	r3, r5, r1
    2b28:	b29b      	uxth	r3, r3
    2b2a:	4815      	ldr	r0, [pc, #84]	; (2b80 <udd_ep_run+0x168>)
    2b2c:	4d16      	ldr	r5, [pc, #88]	; (2b88 <udd_ep_run+0x170>)
    2b2e:	9a03      	ldr	r2, [sp, #12]
    2b30:	42bb      	cmp	r3, r7
    2b32:	d209      	bcs.n	2b48 <udd_ep_run+0x130>
    2b34:	2304      	movs	r3, #4
    2b36:	7ca2      	ldrb	r2, [r4, #18]
    2b38:	4313      	orrs	r3, r2
    2b3a:	74a3      	strb	r3, [r4, #18]
    2b3c:	9b01      	ldr	r3, [sp, #4]
    2b3e:	1e5a      	subs	r2, r3, #1
    2b40:	4b12      	ldr	r3, [pc, #72]	; (2b8c <udd_ep_run+0x174>)
    2b42:	0192      	lsls	r2, r2, #6
    2b44:	18d2      	adds	r2, r2, r3
    2b46:	003b      	movs	r3, r7
    2b48:	9901      	ldr	r1, [sp, #4]
    2b4a:	47a8      	blx	r5
    2b4c:	e7ca      	b.n	2ae4 <udd_ep_run+0xcc>
    2b4e:	0030      	movs	r0, r6
    2b50:	4b0a      	ldr	r3, [pc, #40]	; (2b7c <udd_ep_run+0x164>)
    2b52:	4798      	blx	r3
    2b54:	1a76      	subs	r6, r6, r1
    2b56:	b2b3      	uxth	r3, r6
    2b58:	e7e7      	b.n	2b2a <udd_ep_run+0x112>
    2b5a:	7ca2      	ldrb	r2, [r4, #18]
    2b5c:	439a      	bics	r2, r3
    2b5e:	74a2      	strb	r2, [r4, #18]
    2b60:	e7cb      	b.n	2afa <udd_ep_run+0xe2>
    2b62:	46c0      	nop			; (mov r8, r8)
    2b64:	000028c9 	.word	0x000028c9
    2b68:	0000214d 	.word	0x0000214d
    2b6c:	00002129 	.word	0x00002129
    2b70:	000024f5 	.word	0x000024f5
    2b74:	00001fff 	.word	0x00001fff
    2b78:	000045e9 	.word	0x000045e9
    2b7c:	00004415 	.word	0x00004415
    2b80:	20000874 	.word	0x20000874
    2b84:	000030d1 	.word	0x000030d1
    2b88:	0000311d 	.word	0x0000311d
    2b8c:	200007b4 	.word	0x200007b4

00002b90 <udd_set_address>:
    2b90:	2280      	movs	r2, #128	; 0x80
    2b92:	4b02      	ldr	r3, [pc, #8]	; (2b9c <udd_set_address+0xc>)
    2b94:	4310      	orrs	r0, r2
    2b96:	681b      	ldr	r3, [r3, #0]
    2b98:	7298      	strb	r0, [r3, #10]
    2b9a:	4770      	bx	lr
    2b9c:	20000874 	.word	0x20000874

00002ba0 <udd_getaddress>:
    2ba0:	4b02      	ldr	r3, [pc, #8]	; (2bac <udd_getaddress+0xc>)
    2ba2:	681b      	ldr	r3, [r3, #0]
    2ba4:	7a98      	ldrb	r0, [r3, #10]
    2ba6:	0640      	lsls	r0, r0, #25
    2ba8:	0e40      	lsrs	r0, r0, #25
    2baa:	4770      	bx	lr
    2bac:	20000874 	.word	0x20000874

00002bb0 <udd_set_setup_payload>:
    2bb0:	4b01      	ldr	r3, [pc, #4]	; (2bb8 <udd_set_setup_payload+0x8>)
    2bb2:	6098      	str	r0, [r3, #8]
    2bb4:	8199      	strh	r1, [r3, #12]
    2bb6:	4770      	bx	lr
    2bb8:	200009dc 	.word	0x200009dc

00002bbc <udd_attach>:
    2bbc:	b5f8      	push	{r3, r4, r5, r6, r7, lr}
    2bbe:	2701      	movs	r7, #1
    2bc0:	2003      	movs	r0, #3
    2bc2:	4b16      	ldr	r3, [pc, #88]	; (2c1c <udd_attach+0x60>)
    2bc4:	4798      	blx	r3
    2bc6:	4c16      	ldr	r4, [pc, #88]	; (2c20 <udd_attach+0x64>)
    2bc8:	4e16      	ldr	r6, [pc, #88]	; (2c24 <udd_attach+0x68>)
    2bca:	6822      	ldr	r2, [r4, #0]
    2bcc:	2104      	movs	r1, #4
    2bce:	8913      	ldrh	r3, [r2, #8]
    2bd0:	0020      	movs	r0, r4
    2bd2:	43bb      	bics	r3, r7
    2bd4:	8113      	strh	r3, [r2, #8]
    2bd6:	4a14      	ldr	r2, [pc, #80]	; (2c28 <udd_attach+0x6c>)
    2bd8:	47b0      	blx	r6
    2bda:	4a14      	ldr	r2, [pc, #80]	; (2c2c <udd_attach+0x70>)
    2bdc:	2100      	movs	r1, #0
    2bde:	0020      	movs	r0, r4
    2be0:	47b0      	blx	r6
    2be2:	0039      	movs	r1, r7
    2be4:	4a12      	ldr	r2, [pc, #72]	; (2c30 <udd_attach+0x74>)
    2be6:	0020      	movs	r0, r4
    2be8:	47b0      	blx	r6
    2bea:	4a12      	ldr	r2, [pc, #72]	; (2c34 <udd_attach+0x78>)
    2bec:	2102      	movs	r1, #2
    2bee:	0020      	movs	r0, r4
    2bf0:	47b0      	blx	r6
    2bf2:	4d11      	ldr	r5, [pc, #68]	; (2c38 <udd_attach+0x7c>)
    2bf4:	2104      	movs	r1, #4
    2bf6:	0020      	movs	r0, r4
    2bf8:	47a8      	blx	r5
    2bfa:	2100      	movs	r1, #0
    2bfc:	0020      	movs	r0, r4
    2bfe:	47a8      	blx	r5
    2c00:	0039      	movs	r1, r7
    2c02:	0020      	movs	r0, r4
    2c04:	47a8      	blx	r5
    2c06:	2102      	movs	r1, #2
    2c08:	0020      	movs	r0, r4
    2c0a:	47a8      	blx	r5
    2c0c:	4a0b      	ldr	r2, [pc, #44]	; (2c3c <udd_attach+0x80>)
    2c0e:	2106      	movs	r1, #6
    2c10:	0020      	movs	r0, r4
    2c12:	47b0      	blx	r6
    2c14:	2106      	movs	r1, #6
    2c16:	0020      	movs	r0, r4
    2c18:	47a8      	blx	r5
    2c1a:	bdf8      	pop	{r3, r4, r5, r6, r7, pc}
    2c1c:	000025fd 	.word	0x000025fd
    2c20:	20000874 	.word	0x20000874
    2c24:	00002ca5 	.word	0x00002ca5
    2c28:	000026c5 	.word	0x000026c5
    2c2c:	000024e9 	.word	0x000024e9
    2c30:	0000231d 	.word	0x0000231d
    2c34:	00002679 	.word	0x00002679
    2c38:	00002cc9 	.word	0x00002cc9
    2c3c:	000026f1 	.word	0x000026f1

00002c40 <udd_enable>:
    2c40:	b573      	push	{r0, r1, r4, r5, r6, lr}
    2c42:	4b0f      	ldr	r3, [pc, #60]	; (2c80 <udd_enable+0x40>)
    2c44:	4798      	blx	r3
    2c46:	ac01      	add	r4, sp, #4
    2c48:	0006      	movs	r6, r0
    2c4a:	4b0e      	ldr	r3, [pc, #56]	; (2c84 <udd_enable+0x44>)
    2c4c:	0020      	movs	r0, r4
    2c4e:	4798      	blx	r3
    2c50:	2303      	movs	r3, #3
    2c52:	2182      	movs	r1, #130	; 0x82
    2c54:	4d0c      	ldr	r5, [pc, #48]	; (2c88 <udd_enable+0x48>)
    2c56:	0022      	movs	r2, r4
    2c58:	05c9      	lsls	r1, r1, #23
    2c5a:	70a3      	strb	r3, [r4, #2]
    2c5c:	0028      	movs	r0, r5
    2c5e:	4b0b      	ldr	r3, [pc, #44]	; (2c8c <udd_enable+0x4c>)
    2c60:	4798      	blx	r3
    2c62:	0028      	movs	r0, r5
    2c64:	4b0a      	ldr	r3, [pc, #40]	; (2c90 <udd_enable+0x50>)
    2c66:	4798      	blx	r3
    2c68:	4b0a      	ldr	r3, [pc, #40]	; (2c94 <udd_enable+0x54>)
    2c6a:	4798      	blx	r3
    2c6c:	4b0a      	ldr	r3, [pc, #40]	; (2c98 <udd_enable+0x58>)
    2c6e:	2001      	movs	r0, #1
    2c70:	4798      	blx	r3
    2c72:	4b0a      	ldr	r3, [pc, #40]	; (2c9c <udd_enable+0x5c>)
    2c74:	4798      	blx	r3
    2c76:	2e00      	cmp	r6, #0
    2c78:	d001      	beq.n	2c7e <udd_enable+0x3e>
    2c7a:	4b09      	ldr	r3, [pc, #36]	; (2ca0 <udd_enable+0x60>)
    2c7c:	4798      	blx	r3
    2c7e:	bd73      	pop	{r0, r1, r4, r5, r6, pc}
    2c80:	00002129 	.word	0x00002129
    2c84:	00003759 	.word	0x00003759
    2c88:	20000874 	.word	0x20000874
    2c8c:	00003769 	.word	0x00003769
    2c90:	00003195 	.word	0x00003195
    2c94:	00002509 	.word	0x00002509
    2c98:	000025fd 	.word	0x000025fd
    2c9c:	00002bbd 	.word	0x00002bbd
    2ca0:	000024f5 	.word	0x000024f5

00002ca4 <usb_device_register_callback>:
    2ca4:	000b      	movs	r3, r1
    2ca6:	332e      	adds	r3, #46	; 0x2e
    2ca8:	009b      	lsls	r3, r3, #2
    2caa:	b510      	push	{r4, lr}
    2cac:	501a      	str	r2, [r3, r0]
    2cae:	22aa      	movs	r2, #170	; 0xaa
    2cb0:	4c04      	ldr	r4, [pc, #16]	; (2cc4 <usb_device_register_callback+0x20>)
    2cb2:	0052      	lsls	r2, r2, #1
    2cb4:	0049      	lsls	r1, r1, #1
    2cb6:	5a83      	ldrh	r3, [r0, r2]
    2cb8:	5b09      	ldrh	r1, [r1, r4]
    2cba:	430b      	orrs	r3, r1
    2cbc:	5283      	strh	r3, [r0, r2]
    2cbe:	2000      	movs	r0, #0
    2cc0:	bd10      	pop	{r4, pc}
    2cc2:	46c0      	nop			; (mov r8, r8)
    2cc4:	00004724 	.word	0x00004724

00002cc8 <usb_device_enable_callback>:
    2cc8:	4b06      	ldr	r3, [pc, #24]	; (2ce4 <usb_device_enable_callback+0x1c>)
    2cca:	0049      	lsls	r1, r1, #1
    2ccc:	5acb      	ldrh	r3, [r1, r3]
    2cce:	21ab      	movs	r1, #171	; 0xab
    2cd0:	6802      	ldr	r2, [r0, #0]
    2cd2:	0049      	lsls	r1, r1, #1
    2cd4:	8393      	strh	r3, [r2, #28]
    2cd6:	5a42      	ldrh	r2, [r0, r1]
    2cd8:	431a      	orrs	r2, r3
    2cda:	5242      	strh	r2, [r0, r1]
    2cdc:	6802      	ldr	r2, [r0, #0]
    2cde:	2000      	movs	r0, #0
    2ce0:	8313      	strh	r3, [r2, #24]
    2ce2:	4770      	bx	lr
    2ce4:	00004724 	.word	0x00004724

00002ce8 <usb_device_disable_callback>:
    2ce8:	4b05      	ldr	r3, [pc, #20]	; (2d00 <usb_device_disable_callback+0x18>)
    2cea:	0049      	lsls	r1, r1, #1
    2cec:	5aca      	ldrh	r2, [r1, r3]
    2cee:	21ab      	movs	r1, #171	; 0xab
    2cf0:	0049      	lsls	r1, r1, #1
    2cf2:	5a43      	ldrh	r3, [r0, r1]
    2cf4:	4393      	bics	r3, r2
    2cf6:	5243      	strh	r3, [r0, r1]
    2cf8:	6803      	ldr	r3, [r0, #0]
    2cfa:	2000      	movs	r0, #0
    2cfc:	829a      	strh	r2, [r3, #20]
    2cfe:	4770      	bx	lr
    2d00:	00004724 	.word	0x00004724

00002d04 <usb_device_endpoint_register_callback>:
    2d04:	b510      	push	{r4, lr}
    2d06:	008c      	lsls	r4, r1, #2
    2d08:	18a4      	adds	r4, r4, r2
    2d0a:	3434      	adds	r4, #52	; 0x34
    2d0c:	00a4      	lsls	r4, r4, #2
    2d0e:	1904      	adds	r4, r0, r4
    2d10:	1840      	adds	r0, r0, r1
    2d12:	3059      	adds	r0, #89	; 0x59
    2d14:	4904      	ldr	r1, [pc, #16]	; (2d28 <usb_device_endpoint_register_callback+0x24>)
    2d16:	6063      	str	r3, [r4, #4]
    2d18:	30ff      	adds	r0, #255	; 0xff
    2d1a:	7803      	ldrb	r3, [r0, #0]
    2d1c:	5c8a      	ldrb	r2, [r1, r2]
    2d1e:	4313      	orrs	r3, r2
    2d20:	7003      	strb	r3, [r0, #0]
    2d22:	2000      	movs	r0, #0
    2d24:	bd10      	pop	{r4, pc}
    2d26:	46c0      	nop			; (mov r8, r8)
    2d28:	00004732 	.word	0x00004732

00002d2c <usb_device_endpoint_unregister_callback>:
    2d2c:	008b      	lsls	r3, r1, #2
    2d2e:	189b      	adds	r3, r3, r2
    2d30:	3334      	adds	r3, #52	; 0x34
    2d32:	b510      	push	{r4, lr}
    2d34:	009b      	lsls	r3, r3, #2
    2d36:	0004      	movs	r4, r0
    2d38:	18c3      	adds	r3, r0, r3
    2d3a:	2000      	movs	r0, #0
    2d3c:	1864      	adds	r4, r4, r1
    2d3e:	6058      	str	r0, [r3, #4]
    2d40:	3459      	adds	r4, #89	; 0x59
    2d42:	4b03      	ldr	r3, [pc, #12]	; (2d50 <usb_device_endpoint_unregister_callback+0x24>)
    2d44:	34ff      	adds	r4, #255	; 0xff
    2d46:	5c9a      	ldrb	r2, [r3, r2]
    2d48:	7823      	ldrb	r3, [r4, #0]
    2d4a:	4393      	bics	r3, r2
    2d4c:	7023      	strb	r3, [r4, #0]
    2d4e:	bd10      	pop	{r4, pc}
    2d50:	00004732 	.word	0x00004732

00002d54 <usb_device_endpoint_enable_callback>:
    2d54:	230f      	movs	r3, #15
    2d56:	b570      	push	{r4, r5, r6, lr}
    2d58:	400b      	ands	r3, r1
    2d5a:	18c4      	adds	r4, r0, r3
    2d5c:	3461      	adds	r4, #97	; 0x61
    2d5e:	4e1f      	ldr	r6, [pc, #124]	; (2ddc <usb_device_endpoint_enable_callback+0x88>)
    2d60:	34ff      	adds	r4, #255	; 0xff
    2d62:	7825      	ldrb	r5, [r4, #0]
    2d64:	5cb6      	ldrb	r6, [r6, r2]
    2d66:	4335      	orrs	r5, r6
    2d68:	7025      	strb	r5, [r4, #0]
    2d6a:	2a00      	cmp	r2, #0
    2d6c:	d10f      	bne.n	2d8e <usb_device_endpoint_enable_callback+0x3a>
    2d6e:	6802      	ldr	r2, [r0, #0]
    2d70:	2b00      	cmp	r3, #0
    2d72:	d103      	bne.n	2d7c <usb_device_endpoint_enable_callback+0x28>
    2d74:	32ff      	adds	r2, #255	; 0xff
    2d76:	3303      	adds	r3, #3
    2d78:	7293      	strb	r3, [r2, #10]
    2d7a:	e021      	b.n	2dc0 <usb_device_endpoint_enable_callback+0x6c>
    2d7c:	015b      	lsls	r3, r3, #5
    2d7e:	18d2      	adds	r2, r2, r3
    2d80:	b249      	sxtb	r1, r1
    2d82:	32ff      	adds	r2, #255	; 0xff
    2d84:	2302      	movs	r3, #2
    2d86:	2900      	cmp	r1, #0
    2d88:	dbf6      	blt.n	2d78 <usb_device_endpoint_enable_callback+0x24>
    2d8a:	2301      	movs	r3, #1
    2d8c:	e7f4      	b.n	2d78 <usb_device_endpoint_enable_callback+0x24>
    2d8e:	2a01      	cmp	r2, #1
    2d90:	d10e      	bne.n	2db0 <usb_device_endpoint_enable_callback+0x5c>
    2d92:	6802      	ldr	r2, [r0, #0]
    2d94:	2b00      	cmp	r3, #0
    2d96:	d102      	bne.n	2d9e <usb_device_endpoint_enable_callback+0x4a>
    2d98:	32ff      	adds	r2, #255	; 0xff
    2d9a:	330c      	adds	r3, #12
    2d9c:	e7ec      	b.n	2d78 <usb_device_endpoint_enable_callback+0x24>
    2d9e:	015b      	lsls	r3, r3, #5
    2da0:	18d2      	adds	r2, r2, r3
    2da2:	b249      	sxtb	r1, r1
    2da4:	32ff      	adds	r2, #255	; 0xff
    2da6:	2308      	movs	r3, #8
    2da8:	2900      	cmp	r1, #0
    2daa:	dbe5      	blt.n	2d78 <usb_device_endpoint_enable_callback+0x24>
    2dac:	2304      	movs	r3, #4
    2dae:	e7e3      	b.n	2d78 <usb_device_endpoint_enable_callback+0x24>
    2db0:	2a02      	cmp	r2, #2
    2db2:	d107      	bne.n	2dc4 <usb_device_endpoint_enable_callback+0x70>
    2db4:	6802      	ldr	r2, [r0, #0]
    2db6:	015b      	lsls	r3, r3, #5
    2db8:	18d3      	adds	r3, r2, r3
    2dba:	2210      	movs	r2, #16
    2dbc:	33ff      	adds	r3, #255	; 0xff
    2dbe:	729a      	strb	r2, [r3, #10]
    2dc0:	2000      	movs	r0, #0
    2dc2:	bd70      	pop	{r4, r5, r6, pc}
    2dc4:	2a03      	cmp	r2, #3
    2dc6:	d1fb      	bne.n	2dc0 <usb_device_endpoint_enable_callback+0x6c>
    2dc8:	6802      	ldr	r2, [r0, #0]
    2dca:	015b      	lsls	r3, r3, #5
    2dcc:	18d2      	adds	r2, r2, r3
    2dce:	b249      	sxtb	r1, r1
    2dd0:	32ff      	adds	r2, #255	; 0xff
    2dd2:	2340      	movs	r3, #64	; 0x40
    2dd4:	2900      	cmp	r1, #0
    2dd6:	dbcf      	blt.n	2d78 <usb_device_endpoint_enable_callback+0x24>
    2dd8:	2320      	movs	r3, #32
    2dda:	e7cd      	b.n	2d78 <usb_device_endpoint_enable_callback+0x24>
    2ddc:	00004732 	.word	0x00004732

00002de0 <usb_device_endpoint_disable_callback>:
    2de0:	230f      	movs	r3, #15
    2de2:	b570      	push	{r4, r5, r6, lr}
    2de4:	400b      	ands	r3, r1
    2de6:	18c4      	adds	r4, r0, r3
    2de8:	4d1f      	ldr	r5, [pc, #124]	; (2e68 <usb_device_endpoint_disable_callback+0x88>)
    2dea:	3461      	adds	r4, #97	; 0x61
    2dec:	34ff      	adds	r4, #255	; 0xff
    2dee:	5cae      	ldrb	r6, [r5, r2]
    2df0:	7825      	ldrb	r5, [r4, #0]
    2df2:	43b5      	bics	r5, r6
    2df4:	7025      	strb	r5, [r4, #0]
    2df6:	2a00      	cmp	r2, #0
    2df8:	d10f      	bne.n	2e1a <usb_device_endpoint_disable_callback+0x3a>
    2dfa:	6802      	ldr	r2, [r0, #0]
    2dfc:	2b00      	cmp	r3, #0
    2dfe:	d103      	bne.n	2e08 <usb_device_endpoint_disable_callback+0x28>
    2e00:	32ff      	adds	r2, #255	; 0xff
    2e02:	3303      	adds	r3, #3
    2e04:	7253      	strb	r3, [r2, #9]
    2e06:	e021      	b.n	2e4c <usb_device_endpoint_disable_callback+0x6c>
    2e08:	015b      	lsls	r3, r3, #5
    2e0a:	18d2      	adds	r2, r2, r3
    2e0c:	b249      	sxtb	r1, r1
    2e0e:	32ff      	adds	r2, #255	; 0xff
    2e10:	2302      	movs	r3, #2
    2e12:	2900      	cmp	r1, #0
    2e14:	dbf6      	blt.n	2e04 <usb_device_endpoint_disable_callback+0x24>
    2e16:	2301      	movs	r3, #1
    2e18:	e7f4      	b.n	2e04 <usb_device_endpoint_disable_callback+0x24>
    2e1a:	2a01      	cmp	r2, #1
    2e1c:	d10e      	bne.n	2e3c <usb_device_endpoint_disable_callback+0x5c>
    2e1e:	6802      	ldr	r2, [r0, #0]
    2e20:	2b00      	cmp	r3, #0
    2e22:	d102      	bne.n	2e2a <usb_device_endpoint_disable_callback+0x4a>
    2e24:	32ff      	adds	r2, #255	; 0xff
    2e26:	330c      	adds	r3, #12
    2e28:	e7ec      	b.n	2e04 <usb_device_endpoint_disable_callback+0x24>
    2e2a:	015b      	lsls	r3, r3, #5
    2e2c:	18d2      	adds	r2, r2, r3
    2e2e:	b249      	sxtb	r1, r1
    2e30:	32ff      	adds	r2, #255	; 0xff
    2e32:	2308      	movs	r3, #8
    2e34:	2900      	cmp	r1, #0
    2e36:	dbe5      	blt.n	2e04 <usb_device_endpoint_disable_callback+0x24>
    2e38:	2304      	movs	r3, #4
    2e3a:	e7e3      	b.n	2e04 <usb_device_endpoint_disable_callback+0x24>
    2e3c:	2a02      	cmp	r2, #2
    2e3e:	d107      	bne.n	2e50 <usb_device_endpoint_disable_callback+0x70>
    2e40:	6802      	ldr	r2, [r0, #0]
    2e42:	015b      	lsls	r3, r3, #5
    2e44:	18d3      	adds	r3, r2, r3
    2e46:	2210      	movs	r2, #16
    2e48:	33ff      	adds	r3, #255	; 0xff
    2e4a:	725a      	strb	r2, [r3, #9]
    2e4c:	2000      	movs	r0, #0
    2e4e:	bd70      	pop	{r4, r5, r6, pc}
    2e50:	2a03      	cmp	r2, #3
    2e52:	d1fb      	bne.n	2e4c <usb_device_endpoint_disable_callback+0x6c>
    2e54:	6802      	ldr	r2, [r0, #0]
    2e56:	015b      	lsls	r3, r3, #5
    2e58:	18d2      	adds	r2, r2, r3
    2e5a:	b249      	sxtb	r1, r1
    2e5c:	32ff      	adds	r2, #255	; 0xff
    2e5e:	2340      	movs	r3, #64	; 0x40
    2e60:	2900      	cmp	r1, #0
    2e62:	dbcf      	blt.n	2e04 <usb_device_endpoint_disable_callback+0x24>
    2e64:	2320      	movs	r3, #32
    2e66:	e7cd      	b.n	2e04 <usb_device_endpoint_disable_callback+0x24>
    2e68:	00004732 	.word	0x00004732

00002e6c <usb_device_endpoint_get_config_defaults>:
    2e6c:	2300      	movs	r3, #0
    2e6e:	7003      	strb	r3, [r0, #0]
    2e70:	7043      	strb	r3, [r0, #1]
    2e72:	7083      	strb	r3, [r0, #2]
    2e74:	3301      	adds	r3, #1
    2e76:	70c3      	strb	r3, [r0, #3]
    2e78:	4770      	bx	lr
	...

00002e7c <usb_device_endpoint_set_config>:
    2e7c:	230f      	movs	r3, #15
    2e7e:	b5f0      	push	{r4, r5, r6, r7, lr}
    2e80:	0004      	movs	r4, r0
    2e82:	780d      	ldrb	r5, [r1, #0]
    2e84:	78c8      	ldrb	r0, [r1, #3]
    2e86:	402b      	ands	r3, r5
    2e88:	b26d      	sxtb	r5, r5
    2e8a:	2804      	cmp	r0, #4
    2e8c:	d860      	bhi.n	2f50 <usb_device_endpoint_set_config+0xd4>
    2e8e:	6822      	ldr	r2, [r4, #0]
    2e90:	f001 fa26 	bl	42e0 <__gnu_thumb1_case_uqi>
    2e94:	87490803 	.word	0x87490803
    2e98:	9d          	.byte	0x9d
    2e99:	00          	.byte	0x00
    2e9a:	2000      	movs	r0, #0
    2e9c:	3308      	adds	r3, #8
    2e9e:	015b      	lsls	r3, r3, #5
    2ea0:	54d0      	strb	r0, [r2, r3]
    2ea2:	bdf0      	pop	{r4, r5, r6, r7, pc}
    2ea4:	015e      	lsls	r6, r3, #5
    2ea6:	1992      	adds	r2, r2, r6
    2ea8:	32ff      	adds	r2, #255	; 0xff
    2eaa:	7855      	ldrb	r5, [r2, #1]
    2eac:	201c      	movs	r0, #28
    2eae:	076d      	lsls	r5, r5, #29
    2eb0:	d1f7      	bne.n	2ea2 <usb_device_endpoint_set_config+0x26>
    2eb2:	2570      	movs	r5, #112	; 0x70
    2eb4:	7857      	ldrb	r7, [r2, #1]
    2eb6:	422f      	tst	r7, r5
    2eb8:	d1f3      	bne.n	2ea2 <usb_device_endpoint_set_config+0x26>
    2eba:	380b      	subs	r0, #11
    2ebc:	7050      	strb	r0, [r2, #1]
    2ebe:	6822      	ldr	r2, [r4, #0]
    2ec0:	3308      	adds	r3, #8
    2ec2:	015b      	lsls	r3, r3, #5
    2ec4:	18d2      	adds	r2, r2, r3
    2ec6:	302f      	adds	r0, #47	; 0x2f
    2ec8:	7150      	strb	r0, [r2, #5]
    2eca:	6822      	ldr	r2, [r4, #0]
    2ecc:	18d3      	adds	r3, r2, r3
    2ece:	2280      	movs	r2, #128	; 0x80
    2ed0:	711a      	strb	r2, [r3, #4]
    2ed2:	788a      	ldrb	r2, [r1, #2]
    2ed4:	4b4b      	ldr	r3, [pc, #300]	; (3004 <usb_device_endpoint_set_config+0x188>)
    2ed6:	2a00      	cmp	r2, #0
    2ed8:	d01b      	beq.n	2f12 <usb_device_endpoint_set_config+0x96>
    2eda:	2080      	movs	r0, #128	; 0x80
    2edc:	199a      	adds	r2, r3, r6
    2ede:	6854      	ldr	r4, [r2, #4]
    2ee0:	0600      	lsls	r0, r0, #24
    2ee2:	4304      	orrs	r4, r0
    2ee4:	6054      	str	r4, [r2, #4]
    2ee6:	6954      	ldr	r4, [r2, #20]
    2ee8:	4320      	orrs	r0, r4
    2eea:	6150      	str	r0, [r2, #20]
    2eec:	2507      	movs	r5, #7
    2eee:	784a      	ldrb	r2, [r1, #1]
    2ef0:	199b      	adds	r3, r3, r6
    2ef2:	6858      	ldr	r0, [r3, #4]
    2ef4:	4c44      	ldr	r4, [pc, #272]	; (3008 <usb_device_endpoint_set_config+0x18c>)
    2ef6:	402a      	ands	r2, r5
    2ef8:	0712      	lsls	r2, r2, #28
    2efa:	4020      	ands	r0, r4
    2efc:	4310      	orrs	r0, r2
    2efe:	6058      	str	r0, [r3, #4]
    2f00:	7849      	ldrb	r1, [r1, #1]
    2f02:	695a      	ldr	r2, [r3, #20]
    2f04:	4029      	ands	r1, r5
    2f06:	0709      	lsls	r1, r1, #28
    2f08:	4022      	ands	r2, r4
    2f0a:	430a      	orrs	r2, r1
    2f0c:	615a      	str	r2, [r3, #20]
    2f0e:	2000      	movs	r0, #0
    2f10:	e7c7      	b.n	2ea2 <usb_device_endpoint_set_config+0x26>
    2f12:	1998      	adds	r0, r3, r6
    2f14:	6842      	ldr	r2, [r0, #4]
    2f16:	0052      	lsls	r2, r2, #1
    2f18:	0852      	lsrs	r2, r2, #1
    2f1a:	6042      	str	r2, [r0, #4]
    2f1c:	6942      	ldr	r2, [r0, #20]
    2f1e:	0052      	lsls	r2, r2, #1
    2f20:	0852      	lsrs	r2, r2, #1
    2f22:	6142      	str	r2, [r0, #20]
    2f24:	e7e2      	b.n	2eec <usb_device_endpoint_set_config+0x70>
    2f26:	0158      	lsls	r0, r3, #5
    2f28:	1812      	adds	r2, r2, r0
    2f2a:	32ff      	adds	r2, #255	; 0xff
    2f2c:	2d00      	cmp	r5, #0
    2f2e:	da27      	bge.n	2f80 <usb_device_endpoint_set_config+0x104>
    2f30:	2670      	movs	r6, #112	; 0x70
    2f32:	7857      	ldrb	r7, [r2, #1]
    2f34:	201c      	movs	r0, #28
    2f36:	4237      	tst	r7, r6
    2f38:	d1b3      	bne.n	2ea2 <usb_device_endpoint_set_config+0x26>
    2f3a:	7856      	ldrb	r6, [r2, #1]
    2f3c:	3004      	adds	r0, #4
    2f3e:	4330      	orrs	r0, r6
    2f40:	7050      	strb	r0, [r2, #1]
    2f42:	0018      	movs	r0, r3
    2f44:	6822      	ldr	r2, [r4, #0]
    2f46:	3008      	adds	r0, #8
    2f48:	0140      	lsls	r0, r0, #5
    2f4a:	1812      	adds	r2, r2, r0
    2f4c:	2080      	movs	r0, #128	; 0x80
    2f4e:	7110      	strb	r0, [r2, #4]
    2f50:	2407      	movs	r4, #7
    2f52:	0fed      	lsrs	r5, r5, #31
    2f54:	005b      	lsls	r3, r3, #1
    2f56:	4a2b      	ldr	r2, [pc, #172]	; (3004 <usb_device_endpoint_set_config+0x188>)
    2f58:	195b      	adds	r3, r3, r5
    2f5a:	7848      	ldrb	r0, [r1, #1]
    2f5c:	011b      	lsls	r3, r3, #4
    2f5e:	18d3      	adds	r3, r2, r3
    2f60:	685a      	ldr	r2, [r3, #4]
    2f62:	4020      	ands	r0, r4
    2f64:	4c28      	ldr	r4, [pc, #160]	; (3008 <usb_device_endpoint_set_config+0x18c>)
    2f66:	0700      	lsls	r0, r0, #28
    2f68:	4022      	ands	r2, r4
    2f6a:	4302      	orrs	r2, r0
    2f6c:	605a      	str	r2, [r3, #4]
    2f6e:	7888      	ldrb	r0, [r1, #2]
    2f70:	2800      	cmp	r0, #0
    2f72:	d042      	beq.n	2ffa <usb_device_endpoint_set_config+0x17e>
    2f74:	2280      	movs	r2, #128	; 0x80
    2f76:	6859      	ldr	r1, [r3, #4]
    2f78:	0612      	lsls	r2, r2, #24
    2f7a:	430a      	orrs	r2, r1
    2f7c:	605a      	str	r2, [r3, #4]
    2f7e:	e7c6      	b.n	2f0e <usb_device_endpoint_set_config+0x92>
    2f80:	7856      	ldrb	r6, [r2, #1]
    2f82:	201c      	movs	r0, #28
    2f84:	0776      	lsls	r6, r6, #29
    2f86:	d000      	beq.n	2f8a <usb_device_endpoint_set_config+0x10e>
    2f88:	e78b      	b.n	2ea2 <usb_device_endpoint_set_config+0x26>
    2f8a:	7856      	ldrb	r6, [r2, #1]
    2f8c:	381a      	subs	r0, #26
    2f8e:	4330      	orrs	r0, r6
    2f90:	7050      	strb	r0, [r2, #1]
    2f92:	0018      	movs	r0, r3
    2f94:	6822      	ldr	r2, [r4, #0]
    2f96:	3008      	adds	r0, #8
    2f98:	0140      	lsls	r0, r0, #5
    2f9a:	1812      	adds	r2, r2, r0
    2f9c:	2040      	movs	r0, #64	; 0x40
    2f9e:	7150      	strb	r0, [r2, #5]
    2fa0:	e7d6      	b.n	2f50 <usb_device_endpoint_set_config+0xd4>
    2fa2:	0158      	lsls	r0, r3, #5
    2fa4:	1812      	adds	r2, r2, r0
    2fa6:	32ff      	adds	r2, #255	; 0xff
    2fa8:	2d00      	cmp	r5, #0
    2faa:	da08      	bge.n	2fbe <usb_device_endpoint_set_config+0x142>
    2fac:	2670      	movs	r6, #112	; 0x70
    2fae:	7857      	ldrb	r7, [r2, #1]
    2fb0:	201c      	movs	r0, #28
    2fb2:	4237      	tst	r7, r6
    2fb4:	d000      	beq.n	2fb8 <usb_device_endpoint_set_config+0x13c>
    2fb6:	e774      	b.n	2ea2 <usb_device_endpoint_set_config+0x26>
    2fb8:	7856      	ldrb	r6, [r2, #1]
    2fba:	3014      	adds	r0, #20
    2fbc:	e7bf      	b.n	2f3e <usb_device_endpoint_set_config+0xc2>
    2fbe:	7856      	ldrb	r6, [r2, #1]
    2fc0:	201c      	movs	r0, #28
    2fc2:	0776      	lsls	r6, r6, #29
    2fc4:	d000      	beq.n	2fc8 <usb_device_endpoint_set_config+0x14c>
    2fc6:	e76c      	b.n	2ea2 <usb_device_endpoint_set_config+0x26>
    2fc8:	7856      	ldrb	r6, [r2, #1]
    2fca:	3819      	subs	r0, #25
    2fcc:	e7df      	b.n	2f8e <usb_device_endpoint_set_config+0x112>
    2fce:	0158      	lsls	r0, r3, #5
    2fd0:	1812      	adds	r2, r2, r0
    2fd2:	32ff      	adds	r2, #255	; 0xff
    2fd4:	2d00      	cmp	r5, #0
    2fd6:	da08      	bge.n	2fea <usb_device_endpoint_set_config+0x16e>
    2fd8:	2670      	movs	r6, #112	; 0x70
    2fda:	7857      	ldrb	r7, [r2, #1]
    2fdc:	201c      	movs	r0, #28
    2fde:	4237      	tst	r7, r6
    2fe0:	d000      	beq.n	2fe4 <usb_device_endpoint_set_config+0x168>
    2fe2:	e75e      	b.n	2ea2 <usb_device_endpoint_set_config+0x26>
    2fe4:	7856      	ldrb	r6, [r2, #1]
    2fe6:	3024      	adds	r0, #36	; 0x24
    2fe8:	e7a9      	b.n	2f3e <usb_device_endpoint_set_config+0xc2>
    2fea:	7856      	ldrb	r6, [r2, #1]
    2fec:	201c      	movs	r0, #28
    2fee:	0776      	lsls	r6, r6, #29
    2ff0:	d000      	beq.n	2ff4 <usb_device_endpoint_set_config+0x178>
    2ff2:	e756      	b.n	2ea2 <usb_device_endpoint_set_config+0x26>
    2ff4:	7856      	ldrb	r6, [r2, #1]
    2ff6:	3818      	subs	r0, #24
    2ff8:	e7c9      	b.n	2f8e <usb_device_endpoint_set_config+0x112>
    2ffa:	685a      	ldr	r2, [r3, #4]
    2ffc:	0052      	lsls	r2, r2, #1
    2ffe:	0852      	lsrs	r2, r2, #1
    3000:	605a      	str	r2, [r3, #4]
    3002:	e74e      	b.n	2ea2 <usb_device_endpoint_set_config+0x26>
    3004:	20000a34 	.word	0x20000a34
    3008:	8fffffff 	.word	0x8fffffff

0000300c <usb_device_endpoint_abort_job>:
    300c:	230f      	movs	r3, #15
    300e:	400b      	ands	r3, r1
    3010:	6802      	ldr	r2, [r0, #0]
    3012:	3308      	adds	r3, #8
    3014:	015b      	lsls	r3, r3, #5
    3016:	b249      	sxtb	r1, r1
    3018:	18d2      	adds	r2, r2, r3
    301a:	2900      	cmp	r1, #0
    301c:	da06      	bge.n	302c <usb_device_endpoint_abort_job+0x20>
    301e:	2180      	movs	r1, #128	; 0x80
    3020:	7111      	strb	r1, [r2, #4]
    3022:	6802      	ldr	r2, [r0, #0]
    3024:	18d3      	adds	r3, r2, r3
    3026:	2202      	movs	r2, #2
    3028:	71da      	strb	r2, [r3, #7]
    302a:	4770      	bx	lr
    302c:	2140      	movs	r1, #64	; 0x40
    302e:	7151      	strb	r1, [r2, #5]
    3030:	6802      	ldr	r2, [r0, #0]
    3032:	18d3      	adds	r3, r2, r3
    3034:	2201      	movs	r2, #1
    3036:	e7f7      	b.n	3028 <usb_device_endpoint_abort_job+0x1c>

00003038 <usb_device_endpoint_is_halted>:
    3038:	230f      	movs	r3, #15
    303a:	400b      	ands	r3, r1
    303c:	6800      	ldr	r0, [r0, #0]
    303e:	3308      	adds	r3, #8
    3040:	015b      	lsls	r3, r3, #5
    3042:	18c3      	adds	r3, r0, r3
    3044:	b249      	sxtb	r1, r1
    3046:	7998      	ldrb	r0, [r3, #6]
    3048:	2900      	cmp	r1, #0
    304a:	da02      	bge.n	3052 <usb_device_endpoint_is_halted+0x1a>
    304c:	0680      	lsls	r0, r0, #26
    304e:	0fc0      	lsrs	r0, r0, #31
    3050:	4770      	bx	lr
    3052:	06c0      	lsls	r0, r0, #27
    3054:	e7fb      	b.n	304e <usb_device_endpoint_is_halted+0x16>

00003056 <usb_device_endpoint_set_halt>:
    3056:	230f      	movs	r3, #15
    3058:	400b      	ands	r3, r1
    305a:	6800      	ldr	r0, [r0, #0]
    305c:	3308      	adds	r3, #8
    305e:	015b      	lsls	r3, r3, #5
    3060:	b249      	sxtb	r1, r1
    3062:	18c3      	adds	r3, r0, r3
    3064:	2220      	movs	r2, #32
    3066:	2900      	cmp	r1, #0
    3068:	db00      	blt.n	306c <usb_device_endpoint_set_halt+0x16>
    306a:	2210      	movs	r2, #16
    306c:	715a      	strb	r2, [r3, #5]
    306e:	4770      	bx	lr

00003070 <usb_device_endpoint_clear_halt>:
    3070:	230f      	movs	r3, #15
    3072:	b530      	push	{r4, r5, lr}
    3074:	400b      	ands	r3, r1
    3076:	6802      	ldr	r2, [r0, #0]
    3078:	015c      	lsls	r4, r3, #5
    307a:	1912      	adds	r2, r2, r4
    307c:	32ff      	adds	r2, #255	; 0xff
    307e:	b249      	sxtb	r1, r1
    3080:	79d5      	ldrb	r5, [r2, #7]
    3082:	2900      	cmp	r1, #0
    3084:	da12      	bge.n	30ac <usb_device_endpoint_clear_halt+0x3c>
    3086:	2120      	movs	r1, #32
    3088:	420d      	tst	r5, r1
    308a:	d00e      	beq.n	30aa <usb_device_endpoint_clear_halt+0x3a>
    308c:	7151      	strb	r1, [r2, #5]
    308e:	6802      	ldr	r2, [r0, #0]
    3090:	1849      	adds	r1, r1, r1
    3092:	1912      	adds	r2, r2, r4
    3094:	32ff      	adds	r2, #255	; 0xff
    3096:	7a14      	ldrb	r4, [r2, #8]
    3098:	420c      	tst	r4, r1
    309a:	d006      	beq.n	30aa <usb_device_endpoint_clear_halt+0x3a>
    309c:	7211      	strb	r1, [r2, #8]
    309e:	6802      	ldr	r2, [r0, #0]
    30a0:	3308      	adds	r3, #8
    30a2:	015b      	lsls	r3, r3, #5
    30a4:	18d3      	adds	r3, r2, r3
    30a6:	2202      	movs	r2, #2
    30a8:	711a      	strb	r2, [r3, #4]
    30aa:	bd30      	pop	{r4, r5, pc}
    30ac:	2110      	movs	r1, #16
    30ae:	420d      	tst	r5, r1
    30b0:	d0fb      	beq.n	30aa <usb_device_endpoint_clear_halt+0x3a>
    30b2:	7151      	strb	r1, [r2, #5]
    30b4:	6802      	ldr	r2, [r0, #0]
    30b6:	1849      	adds	r1, r1, r1
    30b8:	1912      	adds	r2, r2, r4
    30ba:	32ff      	adds	r2, #255	; 0xff
    30bc:	7a14      	ldrb	r4, [r2, #8]
    30be:	420c      	tst	r4, r1
    30c0:	d0f3      	beq.n	30aa <usb_device_endpoint_clear_halt+0x3a>
    30c2:	7211      	strb	r1, [r2, #8]
    30c4:	6802      	ldr	r2, [r0, #0]
    30c6:	3308      	adds	r3, #8
    30c8:	015b      	lsls	r3, r3, #5
    30ca:	18d3      	adds	r3, r2, r3
    30cc:	2201      	movs	r2, #1
    30ce:	e7eb      	b.n	30a8 <usb_device_endpoint_clear_halt+0x38>

000030d0 <usb_device_endpoint_write_buffer_job>:
    30d0:	b570      	push	{r4, r5, r6, lr}
    30d2:	000c      	movs	r4, r1
    30d4:	6805      	ldr	r5, [r0, #0]
    30d6:	3408      	adds	r4, #8
    30d8:	0164      	lsls	r4, r4, #5
    30da:	5d65      	ldrb	r5, [r4, r5]
    30dc:	261c      	movs	r6, #28
    30de:	066d      	lsls	r5, r5, #25
    30e0:	0f6d      	lsrs	r5, r5, #29
    30e2:	d014      	beq.n	310e <usb_device_endpoint_write_buffer_job+0x3e>
    30e4:	014d      	lsls	r5, r1, #5
    30e6:	490b      	ldr	r1, [pc, #44]	; (3114 <usb_device_endpoint_write_buffer_job+0x44>)
    30e8:	049b      	lsls	r3, r3, #18
    30ea:	1949      	adds	r1, r1, r5
    30ec:	000d      	movs	r5, r1
    30ee:	610a      	str	r2, [r1, #16]
    30f0:	694a      	ldr	r2, [r1, #20]
    30f2:	4909      	ldr	r1, [pc, #36]	; (3118 <usb_device_endpoint_write_buffer_job+0x48>)
    30f4:	2600      	movs	r6, #0
    30f6:	400a      	ands	r2, r1
    30f8:	616a      	str	r2, [r5, #20]
    30fa:	696a      	ldr	r2, [r5, #20]
    30fc:	0c99      	lsrs	r1, r3, #18
    30fe:	0b93      	lsrs	r3, r2, #14
    3100:	039b      	lsls	r3, r3, #14
    3102:	430b      	orrs	r3, r1
    3104:	616b      	str	r3, [r5, #20]
    3106:	6803      	ldr	r3, [r0, #0]
    3108:	191c      	adds	r4, r3, r4
    310a:	2380      	movs	r3, #128	; 0x80
    310c:	7163      	strb	r3, [r4, #5]
    310e:	0030      	movs	r0, r6
    3110:	bd70      	pop	{r4, r5, r6, pc}
    3112:	46c0      	nop			; (mov r8, r8)
    3114:	20000a34 	.word	0x20000a34
    3118:	f0003fff 	.word	0xf0003fff

0000311c <usb_device_endpoint_read_buffer_job>:
    311c:	b570      	push	{r4, r5, r6, lr}
    311e:	000c      	movs	r4, r1
    3120:	6805      	ldr	r5, [r0, #0]
    3122:	3408      	adds	r4, #8
    3124:	0164      	lsls	r4, r4, #5
    3126:	5d65      	ldrb	r5, [r4, r5]
    3128:	261c      	movs	r6, #28
    312a:	076d      	lsls	r5, r5, #29
    312c:	d013      	beq.n	3156 <usb_device_endpoint_read_buffer_job+0x3a>
    312e:	4d0b      	ldr	r5, [pc, #44]	; (315c <usb_device_endpoint_read_buffer_job+0x40>)
    3130:	0149      	lsls	r1, r1, #5
    3132:	514a      	str	r2, [r1, r5]
    3134:	049b      	lsls	r3, r3, #18
    3136:	1869      	adds	r1, r5, r1
    3138:	684a      	ldr	r2, [r1, #4]
    313a:	091d      	lsrs	r5, r3, #4
    313c:	4b08      	ldr	r3, [pc, #32]	; (3160 <usb_device_endpoint_read_buffer_job+0x44>)
    313e:	2600      	movs	r6, #0
    3140:	4013      	ands	r3, r2
    3142:	432b      	orrs	r3, r5
    3144:	604b      	str	r3, [r1, #4]
    3146:	684b      	ldr	r3, [r1, #4]
    3148:	0b9b      	lsrs	r3, r3, #14
    314a:	039b      	lsls	r3, r3, #14
    314c:	604b      	str	r3, [r1, #4]
    314e:	6803      	ldr	r3, [r0, #0]
    3150:	191c      	adds	r4, r3, r4
    3152:	2340      	movs	r3, #64	; 0x40
    3154:	7123      	strb	r3, [r4, #4]
    3156:	0030      	movs	r0, r6
    3158:	bd70      	pop	{r4, r5, r6, pc}
    315a:	46c0      	nop			; (mov r8, r8)
    315c:	20000a34 	.word	0x20000a34
    3160:	f0003fff 	.word	0xf0003fff

00003164 <usb_device_endpoint_setup_buffer_job>:
    3164:	4b09      	ldr	r3, [pc, #36]	; (318c <usb_device_endpoint_setup_buffer_job+0x28>)
    3166:	6019      	str	r1, [r3, #0]
    3168:	685a      	ldr	r2, [r3, #4]
    316a:	4909      	ldr	r1, [pc, #36]	; (3190 <usb_device_endpoint_setup_buffer_job+0x2c>)
    316c:	4011      	ands	r1, r2
    316e:	2280      	movs	r2, #128	; 0x80
    3170:	0292      	lsls	r2, r2, #10
    3172:	430a      	orrs	r2, r1
    3174:	605a      	str	r2, [r3, #4]
    3176:	685a      	ldr	r2, [r3, #4]
    3178:	0b92      	lsrs	r2, r2, #14
    317a:	0392      	lsls	r2, r2, #14
    317c:	605a      	str	r2, [r3, #4]
    317e:	2240      	movs	r2, #64	; 0x40
    3180:	6803      	ldr	r3, [r0, #0]
    3182:	2000      	movs	r0, #0
    3184:	33ff      	adds	r3, #255	; 0xff
    3186:	715a      	strb	r2, [r3, #5]
    3188:	4770      	bx	lr
    318a:	46c0      	nop			; (mov r8, r8)
    318c:	20000a34 	.word	0x20000a34
    3190:	f0003fff 	.word	0xf0003fff

00003194 <usb_enable>:
    3194:	2302      	movs	r3, #2
    3196:	6802      	ldr	r2, [r0, #0]
    3198:	7811      	ldrb	r1, [r2, #0]
    319a:	430b      	orrs	r3, r1
    319c:	7013      	strb	r3, [r2, #0]
    319e:	6802      	ldr	r2, [r0, #0]
    31a0:	7893      	ldrb	r3, [r2, #2]
    31a2:	2b02      	cmp	r3, #2
    31a4:	d0fc      	beq.n	31a0 <usb_enable+0xc>
    31a6:	4770      	bx	lr

000031a8 <USB_Handler>:
    31a8:	b5f0      	push	{r4, r5, r6, r7, lr}
    31aa:	4ed7      	ldr	r6, [pc, #860]	; (3508 <USB_Handler+0x360>)
    31ac:	b085      	sub	sp, #20
    31ae:	6837      	ldr	r7, [r6, #0]
    31b0:	683d      	ldr	r5, [r7, #0]
    31b2:	782b      	ldrb	r3, [r5, #0]
    31b4:	09db      	lsrs	r3, r3, #7
    31b6:	d100      	bne.n	31ba <USB_Handler+0x12>
    31b8:	e122      	b.n	3400 <USB_Handler+0x258>
    31ba:	8c2b      	ldrh	r3, [r5, #32]
    31bc:	2b00      	cmp	r3, #0
    31be:	d100      	bne.n	31c2 <USB_Handler+0x1a>
    31c0:	e22d      	b.n	361e <USB_Handler+0x476>
    31c2:	8c28      	ldrh	r0, [r5, #32]
    31c4:	4bd1      	ldr	r3, [pc, #836]	; (350c <USB_Handler+0x364>)
    31c6:	b280      	uxth	r0, r0
    31c8:	4798      	blx	r3
    31ca:	0003      	movs	r3, r0
    31cc:	0004      	movs	r4, r0
    31ce:	2003      	movs	r0, #3
    31d0:	3308      	adds	r3, #8
    31d2:	015b      	lsls	r3, r3, #5
    31d4:	18ed      	adds	r5, r5, r3
    31d6:	79ed      	ldrb	r5, [r5, #7]
    31d8:	b2ea      	uxtb	r2, r5
    31da:	9201      	str	r2, [sp, #4]
    31dc:	4202      	tst	r2, r0
    31de:	d031      	beq.n	3244 <USB_Handler+0x9c>
    31e0:	2101      	movs	r1, #1
    31e2:	4acb      	ldr	r2, [pc, #812]	; (3510 <USB_Handler+0x368>)
    31e4:	4694      	mov	ip, r2
    31e6:	000a      	movs	r2, r1
    31e8:	4665      	mov	r5, ip
    31ea:	40a2      	lsls	r2, r4
    31ec:	682d      	ldr	r5, [r5, #0]
    31ee:	4395      	bics	r5, r2
    31f0:	002a      	movs	r2, r5
    31f2:	4665      	mov	r5, ip
    31f4:	602a      	str	r2, [r5, #0]
    31f6:	683a      	ldr	r2, [r7, #0]
    31f8:	18d2      	adds	r2, r2, r3
    31fa:	71d0      	strb	r0, [r2, #7]
    31fc:	193a      	adds	r2, r7, r4
    31fe:	32ae      	adds	r2, #174	; 0xae
    3200:	7812      	ldrb	r2, [r2, #0]
    3202:	420a      	tst	r2, r1
    3204:	d01e      	beq.n	3244 <USB_Handler+0x9c>
    3206:	4ac3      	ldr	r2, [pc, #780]	; (3514 <USB_Handler+0x36c>)
    3208:	0160      	lsls	r0, r4, #5
    320a:	7014      	strb	r4, [r2, #0]
    320c:	6839      	ldr	r1, [r7, #0]
    320e:	5c59      	ldrb	r1, [r3, r1]
    3210:	4bc1      	ldr	r3, [pc, #772]	; (3518 <USB_Handler+0x370>)
    3212:	0789      	lsls	r1, r1, #30
    3214:	0f89      	lsrs	r1, r1, #30
    3216:	181b      	adds	r3, r3, r0
    3218:	2901      	cmp	r1, #1
    321a:	d000      	beq.n	321e <USB_Handler+0x76>
    321c:	e0b4      	b.n	3388 <USB_Handler+0x1e0>
    321e:	6859      	ldr	r1, [r3, #4]
    3220:	0489      	lsls	r1, r1, #18
    3222:	0c89      	lsrs	r1, r1, #18
    3224:	8051      	strh	r1, [r2, #2]
    3226:	6859      	ldr	r1, [r3, #4]
    3228:	0109      	lsls	r1, r1, #4
    322a:	0c89      	lsrs	r1, r1, #18
    322c:	8091      	strh	r1, [r2, #4]
    322e:	685a      	ldr	r2, [r3, #4]
    3230:	0b92      	lsrs	r2, r2, #14
    3232:	0392      	lsls	r2, r2, #14
    3234:	605a      	str	r2, [r3, #4]
    3236:	1ca3      	adds	r3, r4, #2
    3238:	011b      	lsls	r3, r3, #4
    323a:	18fb      	adds	r3, r7, r3
    323c:	685b      	ldr	r3, [r3, #4]
    323e:	49b5      	ldr	r1, [pc, #724]	; (3514 <USB_Handler+0x36c>)
    3240:	0038      	movs	r0, r7
    3242:	4798      	blx	r3
    3244:	2304      	movs	r3, #4
    3246:	9a01      	ldr	r2, [sp, #4]
    3248:	421a      	tst	r2, r3
    324a:	d038      	beq.n	32be <USB_Handler+0x116>
    324c:	0022      	movs	r2, r4
    324e:	4bae      	ldr	r3, [pc, #696]	; (3508 <USB_Handler+0x360>)
    3250:	3208      	adds	r2, #8
    3252:	6818      	ldr	r0, [r3, #0]
    3254:	0153      	lsls	r3, r2, #5
    3256:	6801      	ldr	r1, [r0, #0]
    3258:	469c      	mov	ip, r3
    325a:	5c5b      	ldrb	r3, [r3, r1]
    325c:	069b      	lsls	r3, r3, #26
    325e:	0f5b      	lsrs	r3, r3, #29
    3260:	9302      	str	r3, [sp, #8]
    3262:	2b02      	cmp	r3, #2
    3264:	d000      	beq.n	3268 <USB_Handler+0xc0>
    3266:	e0a4      	b.n	33b2 <USB_Handler+0x20a>
    3268:	4663      	mov	r3, ip
    326a:	5c5b      	ldrb	r3, [r3, r1]
    326c:	079b      	lsls	r3, r3, #30
    326e:	0f9b      	lsrs	r3, r3, #30
    3270:	2b01      	cmp	r3, #1
    3272:	d000      	beq.n	3276 <USB_Handler+0xce>
    3274:	e09d      	b.n	33b2 <USB_Handler+0x20a>
    3276:	4fa8      	ldr	r7, [pc, #672]	; (3518 <USB_Handler+0x370>)
    3278:	0165      	lsls	r5, r4, #5
    327a:	197d      	adds	r5, r7, r5
    327c:	002f      	movs	r7, r5
    327e:	9503      	str	r5, [sp, #12]
    3280:	3708      	adds	r7, #8
    3282:	78bf      	ldrb	r7, [r7, #2]
    3284:	07fd      	lsls	r5, r7, #31
    3286:	d400      	bmi.n	328a <USB_Handler+0xe2>
    3288:	e093      	b.n	33b2 <USB_Handler+0x20a>
    328a:	40a3      	lsls	r3, r4
    328c:	4aa0      	ldr	r2, [pc, #640]	; (3510 <USB_Handler+0x368>)
    328e:	6811      	ldr	r1, [r2, #0]
    3290:	4399      	bics	r1, r3
    3292:	2300      	movs	r3, #0
    3294:	6011      	str	r1, [r2, #0]
    3296:	9a03      	ldr	r2, [sp, #12]
    3298:	7293      	strb	r3, [r2, #10]
    329a:	2204      	movs	r2, #4
    329c:	6803      	ldr	r3, [r0, #0]
    329e:	4463      	add	r3, ip
    32a0:	71da      	strb	r2, [r3, #7]
    32a2:	1903      	adds	r3, r0, r4
    32a4:	33ae      	adds	r3, #174	; 0xae
    32a6:	781b      	ldrb	r3, [r3, #0]
    32a8:	9a02      	ldr	r2, [sp, #8]
    32aa:	4213      	tst	r3, r2
    32ac:	d007      	beq.n	32be <USB_Handler+0x116>
    32ae:	2310      	movs	r3, #16
    32b0:	4998      	ldr	r1, [pc, #608]	; (3514 <USB_Handler+0x36c>)
    32b2:	704b      	strb	r3, [r1, #1]
    32b4:	0123      	lsls	r3, r4, #4
    32b6:	18c3      	adds	r3, r0, r3
    32b8:	700c      	strb	r4, [r1, #0]
    32ba:	6a9b      	ldr	r3, [r3, #40]	; 0x28
    32bc:	4798      	blx	r3
    32be:	2208      	movs	r2, #8
    32c0:	9b01      	ldr	r3, [sp, #4]
    32c2:	4213      	tst	r3, r2
    32c4:	d01d      	beq.n	3302 <USB_Handler+0x15a>
    32c6:	2301      	movs	r3, #1
    32c8:	40a3      	lsls	r3, r4
    32ca:	4991      	ldr	r1, [pc, #580]	; (3510 <USB_Handler+0x368>)
    32cc:	6808      	ldr	r0, [r1, #0]
    32ce:	4398      	bics	r0, r3
    32d0:	6008      	str	r0, [r1, #0]
    32d2:	6830      	ldr	r0, [r6, #0]
    32d4:	18a3      	adds	r3, r4, r2
    32d6:	6801      	ldr	r1, [r0, #0]
    32d8:	015b      	lsls	r3, r3, #5
    32da:	18cb      	adds	r3, r1, r3
    32dc:	71da      	strb	r2, [r3, #7]
    32de:	1903      	adds	r3, r0, r4
    32e0:	33ae      	adds	r3, #174	; 0xae
    32e2:	781b      	ldrb	r3, [r3, #0]
    32e4:	079b      	lsls	r3, r3, #30
    32e6:	d50c      	bpl.n	3302 <USB_Handler+0x15a>
    32e8:	4b8b      	ldr	r3, [pc, #556]	; (3518 <USB_Handler+0x370>)
    32ea:	0162      	lsls	r2, r4, #5
    32ec:	189b      	adds	r3, r3, r2
    32ee:	221f      	movs	r2, #31
    32f0:	89db      	ldrh	r3, [r3, #14]
    32f2:	4988      	ldr	r1, [pc, #544]	; (3514 <USB_Handler+0x36c>)
    32f4:	4013      	ands	r3, r2
    32f6:	704b      	strb	r3, [r1, #1]
    32f8:	0123      	lsls	r3, r4, #4
    32fa:	18c3      	adds	r3, r0, r3
    32fc:	700c      	strb	r4, [r1, #0]
    32fe:	6a9b      	ldr	r3, [r3, #40]	; 0x28
    3300:	4798      	blx	r3
    3302:	2210      	movs	r2, #16
    3304:	9b01      	ldr	r3, [sp, #4]
    3306:	4213      	tst	r3, r2
    3308:	d01f      	beq.n	334a <USB_Handler+0x1a2>
    330a:	2301      	movs	r3, #1
    330c:	40a3      	lsls	r3, r4
    330e:	4980      	ldr	r1, [pc, #512]	; (3510 <USB_Handler+0x368>)
    3310:	6808      	ldr	r0, [r1, #0]
    3312:	4398      	bics	r0, r3
    3314:	0023      	movs	r3, r4
    3316:	6008      	str	r0, [r1, #0]
    3318:	6830      	ldr	r0, [r6, #0]
    331a:	3308      	adds	r3, #8
    331c:	6801      	ldr	r1, [r0, #0]
    331e:	015b      	lsls	r3, r3, #5
    3320:	18cb      	adds	r3, r1, r3
    3322:	71da      	strb	r2, [r3, #7]
    3324:	1903      	adds	r3, r0, r4
    3326:	33ae      	adds	r3, #174	; 0xae
    3328:	781b      	ldrb	r3, [r3, #0]
    332a:	075b      	lsls	r3, r3, #29
    332c:	d50d      	bpl.n	334a <USB_Handler+0x1a2>
    332e:	4a79      	ldr	r2, [pc, #484]	; (3514 <USB_Handler+0x36c>)
    3330:	4b79      	ldr	r3, [pc, #484]	; (3518 <USB_Handler+0x370>)
    3332:	0161      	lsls	r1, r4, #5
    3334:	185b      	adds	r3, r3, r1
    3336:	7014      	strb	r4, [r2, #0]
    3338:	685b      	ldr	r3, [r3, #4]
    333a:	2100      	movs	r1, #0
    333c:	011b      	lsls	r3, r3, #4
    333e:	0c9b      	lsrs	r3, r3, #18
    3340:	8053      	strh	r3, [r2, #2]
    3342:	0123      	lsls	r3, r4, #4
    3344:	18c3      	adds	r3, r0, r3
    3346:	6adb      	ldr	r3, [r3, #44]	; 0x2c
    3348:	4798      	blx	r3
    334a:	2220      	movs	r2, #32
    334c:	9b01      	ldr	r3, [sp, #4]
    334e:	4213      	tst	r3, r2
    3350:	d100      	bne.n	3354 <USB_Handler+0x1ac>
    3352:	e1f9      	b.n	3748 <USB_Handler+0x5a0>
    3354:	2301      	movs	r3, #1
    3356:	40a3      	lsls	r3, r4
    3358:	496d      	ldr	r1, [pc, #436]	; (3510 <USB_Handler+0x368>)
    335a:	6808      	ldr	r0, [r1, #0]
    335c:	4398      	bics	r0, r3
    335e:	0023      	movs	r3, r4
    3360:	6008      	str	r0, [r1, #0]
    3362:	6830      	ldr	r0, [r6, #0]
    3364:	3308      	adds	r3, #8
    3366:	6801      	ldr	r1, [r0, #0]
    3368:	015b      	lsls	r3, r3, #5
    336a:	18cb      	adds	r3, r1, r3
    336c:	71da      	strb	r2, [r3, #7]
    336e:	1903      	adds	r3, r0, r4
    3370:	33ae      	adds	r3, #174	; 0xae
    3372:	781b      	ldrb	r3, [r3, #0]
    3374:	071b      	lsls	r3, r3, #28
    3376:	d400      	bmi.n	337a <USB_Handler+0x1d2>
    3378:	e1e6      	b.n	3748 <USB_Handler+0x5a0>
    337a:	4966      	ldr	r1, [pc, #408]	; (3514 <USB_Handler+0x36c>)
    337c:	700c      	strb	r4, [r1, #0]
    337e:	0124      	lsls	r4, r4, #4
    3380:	1904      	adds	r4, r0, r4
    3382:	6b23      	ldr	r3, [r4, #48]	; 0x30
    3384:	4798      	blx	r3
    3386:	e1df      	b.n	3748 <USB_Handler+0x5a0>
    3388:	6859      	ldr	r1, [r3, #4]
    338a:	4d64      	ldr	r5, [pc, #400]	; (351c <USB_Handler+0x374>)
    338c:	0109      	lsls	r1, r1, #4
    338e:	0c89      	lsrs	r1, r1, #18
    3390:	8051      	strh	r1, [r2, #2]
    3392:	b288      	uxth	r0, r1
    3394:	6859      	ldr	r1, [r3, #4]
    3396:	0489      	lsls	r1, r1, #18
    3398:	0c89      	lsrs	r1, r1, #18
    339a:	8091      	strh	r1, [r2, #4]
    339c:	6859      	ldr	r1, [r3, #4]
    339e:	4029      	ands	r1, r5
    33a0:	6059      	str	r1, [r3, #4]
    33a2:	2800      	cmp	r0, #0
    33a4:	d000      	beq.n	33a8 <USB_Handler+0x200>
    33a6:	e746      	b.n	3236 <USB_Handler+0x8e>
    33a8:	685b      	ldr	r3, [r3, #4]
    33aa:	049b      	lsls	r3, r3, #18
    33ac:	0c9b      	lsrs	r3, r3, #18
    33ae:	8053      	strh	r3, [r2, #2]
    33b0:	e741      	b.n	3236 <USB_Handler+0x8e>
    33b2:	0152      	lsls	r2, r2, #5
    33b4:	5c53      	ldrb	r3, [r2, r1]
    33b6:	4d58      	ldr	r5, [pc, #352]	; (3518 <USB_Handler+0x370>)
    33b8:	069b      	lsls	r3, r3, #26
    33ba:	0f5b      	lsrs	r3, r3, #29
    33bc:	46ac      	mov	ip, r5
    33be:	0167      	lsls	r7, r4, #5
    33c0:	2b03      	cmp	r3, #3
    33c2:	d111      	bne.n	33e8 <USB_Handler+0x240>
    33c4:	5c53      	ldrb	r3, [r2, r1]
    33c6:	079b      	lsls	r3, r3, #30
    33c8:	0f9b      	lsrs	r3, r3, #30
    33ca:	2b01      	cmp	r3, #1
    33cc:	d10c      	bne.n	33e8 <USB_Handler+0x240>
    33ce:	0039      	movs	r1, r7
    33d0:	2300      	movs	r3, #0
    33d2:	4461      	add	r1, ip
    33d4:	728b      	strb	r3, [r1, #10]
    33d6:	2104      	movs	r1, #4
    33d8:	6803      	ldr	r3, [r0, #0]
    33da:	189b      	adds	r3, r3, r2
    33dc:	71d9      	strb	r1, [r3, #7]
    33de:	6803      	ldr	r3, [r0, #0]
    33e0:	189a      	adds	r2, r3, r2
    33e2:	2310      	movs	r3, #16
    33e4:	7153      	strb	r3, [r2, #5]
    33e6:	e76a      	b.n	32be <USB_Handler+0x116>
    33e8:	003a      	movs	r2, r7
    33ea:	2300      	movs	r3, #0
    33ec:	4462      	add	r2, ip
    33ee:	7293      	strb	r3, [r2, #10]
    33f0:	0022      	movs	r2, r4
    33f2:	6803      	ldr	r3, [r0, #0]
    33f4:	3208      	adds	r2, #8
    33f6:	0152      	lsls	r2, r2, #5
    33f8:	189b      	adds	r3, r3, r2
    33fa:	2204      	movs	r2, #4
    33fc:	71da      	strb	r2, [r3, #7]
    33fe:	e75e      	b.n	32be <USB_Handler+0x116>
    3400:	8c2c      	ldrh	r4, [r5, #32]
    3402:	b2a2      	uxth	r2, r4
    3404:	9201      	str	r2, [sp, #4]
    3406:	2a00      	cmp	r2, #0
    3408:	d12c      	bne.n	3464 <USB_Handler+0x2bc>
    340a:	8bab      	ldrh	r3, [r5, #28]
    340c:	3255      	adds	r2, #85	; 0x55
    340e:	b29b      	uxth	r3, r3
    3410:	9302      	str	r3, [sp, #8]
    3412:	23ab      	movs	r3, #171	; 0xab
    3414:	32ff      	adds	r2, #255	; 0xff
    3416:	005b      	lsls	r3, r3, #1
    3418:	5afb      	ldrh	r3, [r7, r3]
    341a:	5abd      	ldrh	r5, [r7, r2]
    341c:	2780      	movs	r7, #128	; 0x80
    341e:	401d      	ands	r5, r3
    3420:	9b02      	ldr	r3, [sp, #8]
    3422:	9c01      	ldr	r4, [sp, #4]
    3424:	401d      	ands	r5, r3
    3426:	007f      	lsls	r7, r7, #1
    3428:	4b3d      	ldr	r3, [pc, #244]	; (3520 <USB_Handler+0x378>)
    342a:	0062      	lsls	r2, r4, #1
    342c:	5ad3      	ldrh	r3, [r2, r3]
    342e:	9a02      	ldr	r2, [sp, #8]
    3430:	4213      	tst	r3, r2
    3432:	d002      	beq.n	343a <USB_Handler+0x292>
    3434:	6832      	ldr	r2, [r6, #0]
    3436:	6812      	ldr	r2, [r2, #0]
    3438:	8393      	strh	r3, [r2, #28]
    343a:	422b      	tst	r3, r5
    343c:	d00e      	beq.n	345c <USB_Handler+0x2b4>
    343e:	4939      	ldr	r1, [pc, #228]	; (3524 <USB_Handler+0x37c>)
    3440:	2c06      	cmp	r4, #6
    3442:	d104      	bne.n	344e <USB_Handler+0x2a6>
    3444:	4b34      	ldr	r3, [pc, #208]	; (3518 <USB_Handler+0x370>)
    3446:	891b      	ldrh	r3, [r3, #8]
    3448:	091b      	lsrs	r3, r3, #4
    344a:	403b      	ands	r3, r7
    344c:	600b      	str	r3, [r1, #0]
    344e:	0023      	movs	r3, r4
    3450:	6832      	ldr	r2, [r6, #0]
    3452:	332e      	adds	r3, #46	; 0x2e
    3454:	009b      	lsls	r3, r3, #2
    3456:	589b      	ldr	r3, [r3, r2]
    3458:	0010      	movs	r0, r2
    345a:	4798      	blx	r3
    345c:	3401      	adds	r4, #1
    345e:	2c07      	cmp	r4, #7
    3460:	d1e2      	bne.n	3428 <USB_Handler+0x280>
    3462:	e171      	b.n	3748 <USB_Handler+0x5a0>
    3464:	003e      	movs	r6, r7
    3466:	3659      	adds	r6, #89	; 0x59
    3468:	36ff      	adds	r6, #255	; 0xff
    346a:	9a01      	ldr	r2, [sp, #4]
    346c:	2101      	movs	r1, #1
    346e:	411a      	asrs	r2, r3
    3470:	b2dc      	uxtb	r4, r3
    3472:	420a      	tst	r2, r1
    3474:	d100      	bne.n	3478 <USB_Handler+0x2d0>
    3476:	e0cc      	b.n	3612 <USB_Handler+0x46a>
    3478:	001a      	movs	r2, r3
    347a:	3208      	adds	r2, #8
    347c:	0151      	lsls	r1, r2, #5
    347e:	1869      	adds	r1, r5, r1
    3480:	1dc8      	adds	r0, r1, #7
    3482:	9003      	str	r0, [sp, #12]
    3484:	79c8      	ldrb	r0, [r1, #7]
    3486:	7a31      	ldrb	r1, [r6, #8]
    3488:	9202      	str	r2, [sp, #8]
    348a:	b2c0      	uxtb	r0, r0
    348c:	7832      	ldrb	r2, [r6, #0]
    348e:	4001      	ands	r1, r0
    3490:	4011      	ands	r1, r2
    3492:	2260      	movs	r2, #96	; 0x60
    3494:	4210      	tst	r0, r2
    3496:	d01a      	beq.n	34ce <USB_Handler+0x326>
    3498:	015a      	lsls	r2, r3, #5
    349a:	18ad      	adds	r5, r5, r2
    349c:	2240      	movs	r2, #64	; 0x40
    349e:	35ff      	adds	r5, #255	; 0xff
    34a0:	7a28      	ldrb	r0, [r5, #8]
    34a2:	4210      	tst	r0, r2
    34a4:	d00d      	beq.n	34c2 <USB_Handler+0x31a>
    34a6:	722a      	strb	r2, [r5, #8]
    34a8:	3ac0      	subs	r2, #192	; 0xc0
    34aa:	4314      	orrs	r4, r2
    34ac:	4a1e      	ldr	r2, [pc, #120]	; (3528 <USB_Handler+0x380>)
    34ae:	7194      	strb	r4, [r2, #6]
    34b0:	2260      	movs	r2, #96	; 0x60
    34b2:	4211      	tst	r1, r2
    34b4:	d100      	bne.n	34b8 <USB_Handler+0x310>
    34b6:	e147      	b.n	3748 <USB_Handler+0x5a0>
    34b8:	011b      	lsls	r3, r3, #4
    34ba:	18fb      	adds	r3, r7, r3
    34bc:	33e0      	adds	r3, #224	; 0xe0
    34be:	681b      	ldr	r3, [r3, #0]
    34c0:	e052      	b.n	3568 <USB_Handler+0x3c0>
    34c2:	2220      	movs	r2, #32
    34c4:	7a28      	ldrb	r0, [r5, #8]
    34c6:	4210      	tst	r0, r2
    34c8:	d0f2      	beq.n	34b0 <USB_Handler+0x308>
    34ca:	722a      	strb	r2, [r5, #8]
    34cc:	e7ee      	b.n	34ac <USB_Handler+0x304>
    34ce:	2210      	movs	r2, #16
    34d0:	4210      	tst	r0, r2
    34d2:	d02b      	beq.n	352c <USB_Handler+0x384>
    34d4:	2110      	movs	r1, #16
    34d6:	9a03      	ldr	r2, [sp, #12]
    34d8:	7011      	strb	r1, [r2, #0]
    34da:	2110      	movs	r1, #16
    34dc:	18fa      	adds	r2, r7, r3
    34de:	3261      	adds	r2, #97	; 0x61
    34e0:	32ff      	adds	r2, #255	; 0xff
    34e2:	7812      	ldrb	r2, [r2, #0]
    34e4:	420a      	tst	r2, r1
    34e6:	d100      	bne.n	34ea <USB_Handler+0x342>
    34e8:	e12e      	b.n	3748 <USB_Handler+0x5a0>
    34ea:	4a0b      	ldr	r2, [pc, #44]	; (3518 <USB_Handler+0x370>)
    34ec:	0159      	lsls	r1, r3, #5
    34ee:	1852      	adds	r2, r2, r1
    34f0:	6852      	ldr	r2, [r2, #4]
    34f2:	011b      	lsls	r3, r3, #4
    34f4:	18fb      	adds	r3, r7, r3
    34f6:	0492      	lsls	r2, r2, #18
    34f8:	490b      	ldr	r1, [pc, #44]	; (3528 <USB_Handler+0x380>)
    34fa:	33dc      	adds	r3, #220	; 0xdc
    34fc:	0c92      	lsrs	r2, r2, #18
    34fe:	681b      	ldr	r3, [r3, #0]
    3500:	800a      	strh	r2, [r1, #0]
    3502:	0038      	movs	r0, r7
    3504:	e73e      	b.n	3384 <USB_Handler+0x1dc>
    3506:	46c0      	nop			; (mov r8, r8)
    3508:	20000738 	.word	0x20000738
    350c:	0000460d 	.word	0x0000460d
    3510:	20000748 	.word	0x20000748
    3514:	2000074c 	.word	0x2000074c
    3518:	20000a34 	.word	0x20000a34
    351c:	f0003fff 	.word	0xf0003fff
    3520:	00004724 	.word	0x00004724
    3524:	2000073c 	.word	0x2000073c
    3528:	20000740 	.word	0x20000740
    352c:	2203      	movs	r2, #3
    352e:	4210      	tst	r0, r2
    3530:	d02e      	beq.n	3590 <USB_Handler+0x3e8>
    3532:	2002      	movs	r0, #2
    3534:	015a      	lsls	r2, r3, #5
    3536:	18ad      	adds	r5, r5, r2
    3538:	35ff      	adds	r5, #255	; 0xff
    353a:	7a2e      	ldrb	r6, [r5, #8]
    353c:	4206      	tst	r6, r0
    353e:	d015      	beq.n	356c <USB_Handler+0x3c4>
    3540:	7228      	strb	r0, [r5, #8]
    3542:	2580      	movs	r5, #128	; 0x80
    3544:	4881      	ldr	r0, [pc, #516]	; (374c <USB_Handler+0x5a4>)
    3546:	426d      	negs	r5, r5
    3548:	432c      	orrs	r4, r5
    354a:	7184      	strb	r4, [r0, #6]
    354c:	4c80      	ldr	r4, [pc, #512]	; (3750 <USB_Handler+0x5a8>)
    354e:	18a2      	adds	r2, r4, r2
    3550:	3210      	adds	r2, #16
    3552:	6852      	ldr	r2, [r2, #4]
    3554:	0492      	lsls	r2, r2, #18
    3556:	0c92      	lsrs	r2, r2, #18
    3558:	8042      	strh	r2, [r0, #2]
    355a:	078a      	lsls	r2, r1, #30
    355c:	d100      	bne.n	3560 <USB_Handler+0x3b8>
    355e:	e0f3      	b.n	3748 <USB_Handler+0x5a0>
    3560:	330d      	adds	r3, #13
    3562:	011b      	lsls	r3, r3, #4
    3564:	18fb      	adds	r3, r7, r3
    3566:	685b      	ldr	r3, [r3, #4]
    3568:	4978      	ldr	r1, [pc, #480]	; (374c <USB_Handler+0x5a4>)
    356a:	e7ca      	b.n	3502 <USB_Handler+0x35a>
    356c:	2601      	movs	r6, #1
    356e:	7a28      	ldrb	r0, [r5, #8]
    3570:	4230      	tst	r0, r6
    3572:	d0f2      	beq.n	355a <USB_Handler+0x3b2>
    3574:	4875      	ldr	r0, [pc, #468]	; (374c <USB_Handler+0x5a4>)
    3576:	722e      	strb	r6, [r5, #8]
    3578:	7184      	strb	r4, [r0, #6]
    357a:	4c75      	ldr	r4, [pc, #468]	; (3750 <USB_Handler+0x5a8>)
    357c:	18a4      	adds	r4, r4, r2
    357e:	6862      	ldr	r2, [r4, #4]
    3580:	0492      	lsls	r2, r2, #18
    3582:	0c92      	lsrs	r2, r2, #18
    3584:	8002      	strh	r2, [r0, #0]
    3586:	6862      	ldr	r2, [r4, #4]
    3588:	0112      	lsls	r2, r2, #4
    358a:	0c92      	lsrs	r2, r2, #18
    358c:	8082      	strh	r2, [r0, #4]
    358e:	e7e4      	b.n	355a <USB_Handler+0x3b2>
    3590:	220c      	movs	r2, #12
    3592:	4210      	tst	r0, r2
    3594:	d03d      	beq.n	3612 <USB_Handler+0x46a>
    3596:	2008      	movs	r0, #8
    3598:	015e      	lsls	r6, r3, #5
    359a:	19ad      	adds	r5, r5, r6
    359c:	35ff      	adds	r5, #255	; 0xff
    359e:	7a2a      	ldrb	r2, [r5, #8]
    35a0:	4202      	tst	r2, r0
    35a2:	d01e      	beq.n	35e2 <USB_Handler+0x43a>
    35a4:	7228      	strb	r0, [r5, #8]
    35a6:	486a      	ldr	r0, [pc, #424]	; (3750 <USB_Handler+0x5a8>)
    35a8:	1980      	adds	r0, r0, r6
    35aa:	2602      	movs	r6, #2
    35ac:	7e85      	ldrb	r5, [r0, #26]
    35ae:	4235      	tst	r5, r6
    35b0:	d002      	beq.n	35b8 <USB_Handler+0x410>
    35b2:	7e85      	ldrb	r5, [r0, #26]
    35b4:	43b5      	bics	r5, r6
    35b6:	7685      	strb	r5, [r0, #26]
    35b8:	2080      	movs	r0, #128	; 0x80
    35ba:	4240      	negs	r0, r0
    35bc:	4304      	orrs	r4, r0
    35be:	4863      	ldr	r0, [pc, #396]	; (374c <USB_Handler+0x5a4>)
    35c0:	9a02      	ldr	r2, [sp, #8]
    35c2:	7184      	strb	r4, [r0, #6]
    35c4:	6838      	ldr	r0, [r7, #0]
    35c6:	0152      	lsls	r2, r2, #5
    35c8:	1882      	adds	r2, r0, r2
    35ca:	79d2      	ldrb	r2, [r2, #7]
    35cc:	0792      	lsls	r2, r2, #30
    35ce:	d500      	bpl.n	35d2 <USB_Handler+0x42a>
    35d0:	e0ba      	b.n	3748 <USB_Handler+0x5a0>
    35d2:	220c      	movs	r2, #12
    35d4:	4211      	tst	r1, r2
    35d6:	d100      	bne.n	35da <USB_Handler+0x432>
    35d8:	e0b6      	b.n	3748 <USB_Handler+0x5a0>
    35da:	011b      	lsls	r3, r3, #4
    35dc:	18fb      	adds	r3, r7, r3
    35de:	33d8      	adds	r3, #216	; 0xd8
    35e0:	e76d      	b.n	34be <USB_Handler+0x316>
    35e2:	2004      	movs	r0, #4
    35e4:	7a2a      	ldrb	r2, [r5, #8]
    35e6:	4202      	tst	r2, r0
    35e8:	d0f3      	beq.n	35d2 <USB_Handler+0x42a>
    35ea:	7228      	strb	r0, [r5, #8]
    35ec:	4858      	ldr	r0, [pc, #352]	; (3750 <USB_Handler+0x5a8>)
    35ee:	1980      	adds	r0, r0, r6
    35f0:	2602      	movs	r6, #2
    35f2:	7a85      	ldrb	r5, [r0, #10]
    35f4:	4235      	tst	r5, r6
    35f6:	d002      	beq.n	35fe <USB_Handler+0x456>
    35f8:	7a85      	ldrb	r5, [r0, #10]
    35fa:	43b5      	bics	r5, r6
    35fc:	7285      	strb	r5, [r0, #10]
    35fe:	4853      	ldr	r0, [pc, #332]	; (374c <USB_Handler+0x5a4>)
    3600:	9a02      	ldr	r2, [sp, #8]
    3602:	7184      	strb	r4, [r0, #6]
    3604:	6838      	ldr	r0, [r7, #0]
    3606:	0152      	lsls	r2, r2, #5
    3608:	1882      	adds	r2, r0, r2
    360a:	79d2      	ldrb	r2, [r2, #7]
    360c:	07d2      	lsls	r2, r2, #31
    360e:	d5e0      	bpl.n	35d2 <USB_Handler+0x42a>
    3610:	e09a      	b.n	3748 <USB_Handler+0x5a0>
    3612:	3301      	adds	r3, #1
    3614:	3601      	adds	r6, #1
    3616:	2b08      	cmp	r3, #8
    3618:	d000      	beq.n	361c <USB_Handler+0x474>
    361a:	e726      	b.n	346a <USB_Handler+0x2c2>
    361c:	e094      	b.n	3748 <USB_Handler+0x5a0>
    361e:	2304      	movs	r3, #4
    3620:	8bac      	ldrh	r4, [r5, #28]
    3622:	b2a4      	uxth	r4, r4
    3624:	421c      	tst	r4, r3
    3626:	d026      	beq.n	3676 <USB_Handler+0x4ce>
    3628:	83ab      	strh	r3, [r5, #28]
    362a:	4b4a      	ldr	r3, [pc, #296]	; (3754 <USB_Handler+0x5ac>)
    362c:	681b      	ldr	r3, [r3, #0]
    362e:	469c      	mov	ip, r3
    3630:	2301      	movs	r3, #1
    3632:	001d      	movs	r5, r3
    3634:	002a      	movs	r2, r5
    3636:	4661      	mov	r1, ip
    3638:	409a      	lsls	r2, r3
    363a:	4211      	tst	r1, r2
    363c:	d010      	beq.n	3660 <USB_Handler+0x4b8>
    363e:	0019      	movs	r1, r3
    3640:	683a      	ldr	r2, [r7, #0]
    3642:	3108      	adds	r1, #8
    3644:	0149      	lsls	r1, r1, #5
    3646:	5c88      	ldrb	r0, [r1, r2]
    3648:	0680      	lsls	r0, r0, #26
    364a:	0f40      	lsrs	r0, r0, #29
    364c:	2803      	cmp	r0, #3
    364e:	d107      	bne.n	3660 <USB_Handler+0x4b8>
    3650:	5c88      	ldrb	r0, [r1, r2]
    3652:	0780      	lsls	r0, r0, #30
    3654:	0f80      	lsrs	r0, r0, #30
    3656:	2801      	cmp	r0, #1
    3658:	d102      	bne.n	3660 <USB_Handler+0x4b8>
    365a:	1852      	adds	r2, r2, r1
    365c:	2110      	movs	r1, #16
    365e:	7111      	strb	r1, [r2, #4]
    3660:	3301      	adds	r3, #1
    3662:	2b08      	cmp	r3, #8
    3664:	d1e6      	bne.n	3634 <USB_Handler+0x48c>
    3666:	003b      	movs	r3, r7
    3668:	33a5      	adds	r3, #165	; 0xa5
    366a:	781b      	ldrb	r3, [r3, #0]
    366c:	07db      	lsls	r3, r3, #31
    366e:	d502      	bpl.n	3676 <USB_Handler+0x4ce>
    3670:	687b      	ldr	r3, [r7, #4]
    3672:	0038      	movs	r0, r7
    3674:	4798      	blx	r3
    3676:	2308      	movs	r3, #8
    3678:	421c      	tst	r4, r3
    367a:	d00c      	beq.n	3696 <USB_Handler+0x4ee>
    367c:	2100      	movs	r1, #0
    367e:	4a35      	ldr	r2, [pc, #212]	; (3754 <USB_Handler+0x5ac>)
    3680:	6830      	ldr	r0, [r6, #0]
    3682:	6011      	str	r1, [r2, #0]
    3684:	6802      	ldr	r2, [r0, #0]
    3686:	8393      	strh	r3, [r2, #28]
    3688:	0003      	movs	r3, r0
    368a:	33a5      	adds	r3, #165	; 0xa5
    368c:	781b      	ldrb	r3, [r3, #0]
    368e:	079b      	lsls	r3, r3, #30
    3690:	d501      	bpl.n	3696 <USB_Handler+0x4ee>
    3692:	6883      	ldr	r3, [r0, #8]
    3694:	4798      	blx	r3
    3696:	2340      	movs	r3, #64	; 0x40
    3698:	421c      	tst	r4, r3
    369a:	d009      	beq.n	36b0 <USB_Handler+0x508>
    369c:	6830      	ldr	r0, [r6, #0]
    369e:	6802      	ldr	r2, [r0, #0]
    36a0:	8393      	strh	r3, [r2, #28]
    36a2:	0003      	movs	r3, r0
    36a4:	33a5      	adds	r3, #165	; 0xa5
    36a6:	781b      	ldrb	r3, [r3, #0]
    36a8:	06db      	lsls	r3, r3, #27
    36aa:	d501      	bpl.n	36b0 <USB_Handler+0x508>
    36ac:	6943      	ldr	r3, [r0, #20]
    36ae:	4798      	blx	r3
    36b0:	2320      	movs	r3, #32
    36b2:	421c      	tst	r4, r3
    36b4:	d009      	beq.n	36ca <USB_Handler+0x522>
    36b6:	6830      	ldr	r0, [r6, #0]
    36b8:	6802      	ldr	r2, [r0, #0]
    36ba:	8393      	strh	r3, [r2, #28]
    36bc:	0003      	movs	r3, r0
    36be:	33a5      	adds	r3, #165	; 0xa5
    36c0:	781b      	ldrb	r3, [r3, #0]
    36c2:	071b      	lsls	r3, r3, #28
    36c4:	d501      	bpl.n	36ca <USB_Handler+0x522>
    36c6:	6903      	ldr	r3, [r0, #16]
    36c8:	4798      	blx	r3
    36ca:	2310      	movs	r3, #16
    36cc:	421c      	tst	r4, r3
    36ce:	d009      	beq.n	36e4 <USB_Handler+0x53c>
    36d0:	6830      	ldr	r0, [r6, #0]
    36d2:	6802      	ldr	r2, [r0, #0]
    36d4:	8393      	strh	r3, [r2, #28]
    36d6:	0003      	movs	r3, r0
    36d8:	33a5      	adds	r3, #165	; 0xa5
    36da:	781b      	ldrb	r3, [r3, #0]
    36dc:	075b      	lsls	r3, r3, #29
    36de:	d501      	bpl.n	36e4 <USB_Handler+0x53c>
    36e0:	68c3      	ldr	r3, [r0, #12]
    36e2:	4798      	blx	r3
    36e4:	2380      	movs	r3, #128	; 0x80
    36e6:	421c      	tst	r4, r3
    36e8:	d00c      	beq.n	3704 <USB_Handler+0x55c>
    36ea:	2100      	movs	r1, #0
    36ec:	4a19      	ldr	r2, [pc, #100]	; (3754 <USB_Handler+0x5ac>)
    36ee:	6830      	ldr	r0, [r6, #0]
    36f0:	6011      	str	r1, [r2, #0]
    36f2:	6802      	ldr	r2, [r0, #0]
    36f4:	8393      	strh	r3, [r2, #28]
    36f6:	0003      	movs	r3, r0
    36f8:	33a5      	adds	r3, #165	; 0xa5
    36fa:	781b      	ldrb	r3, [r3, #0]
    36fc:	069b      	lsls	r3, r3, #26
    36fe:	d501      	bpl.n	3704 <USB_Handler+0x55c>
    3700:	6983      	ldr	r3, [r0, #24]
    3702:	4798      	blx	r3
    3704:	2380      	movs	r3, #128	; 0x80
    3706:	005b      	lsls	r3, r3, #1
    3708:	421c      	tst	r4, r3
    370a:	d00c      	beq.n	3726 <USB_Handler+0x57e>
    370c:	2100      	movs	r1, #0
    370e:	4a11      	ldr	r2, [pc, #68]	; (3754 <USB_Handler+0x5ac>)
    3710:	6830      	ldr	r0, [r6, #0]
    3712:	6011      	str	r1, [r2, #0]
    3714:	6802      	ldr	r2, [r0, #0]
    3716:	8393      	strh	r3, [r2, #28]
    3718:	0003      	movs	r3, r0
    371a:	33a5      	adds	r3, #165	; 0xa5
    371c:	781b      	ldrb	r3, [r3, #0]
    371e:	065b      	lsls	r3, r3, #25
    3720:	d501      	bpl.n	3726 <USB_Handler+0x57e>
    3722:	69c3      	ldr	r3, [r0, #28]
    3724:	4798      	blx	r3
    3726:	2380      	movs	r3, #128	; 0x80
    3728:	009b      	lsls	r3, r3, #2
    372a:	421c      	tst	r4, r3
    372c:	d00c      	beq.n	3748 <USB_Handler+0x5a0>
    372e:	2100      	movs	r1, #0
    3730:	4a08      	ldr	r2, [pc, #32]	; (3754 <USB_Handler+0x5ac>)
    3732:	6830      	ldr	r0, [r6, #0]
    3734:	6011      	str	r1, [r2, #0]
    3736:	6802      	ldr	r2, [r0, #0]
    3738:	8393      	strh	r3, [r2, #28]
    373a:	0003      	movs	r3, r0
    373c:	33a5      	adds	r3, #165	; 0xa5
    373e:	781b      	ldrb	r3, [r3, #0]
    3740:	2b7f      	cmp	r3, #127	; 0x7f
    3742:	d901      	bls.n	3748 <USB_Handler+0x5a0>
    3744:	6a03      	ldr	r3, [r0, #32]
    3746:	4798      	blx	r3
    3748:	b005      	add	sp, #20
    374a:	bdf0      	pop	{r4, r5, r6, r7, pc}
    374c:	20000740 	.word	0x20000740
    3750:	20000a34 	.word	0x20000a34
    3754:	20000748 	.word	0x20000748

00003758 <usb_get_config_defaults>:
    3758:	2300      	movs	r3, #0
    375a:	2203      	movs	r2, #3
    375c:	7003      	strb	r3, [r0, #0]
    375e:	3301      	adds	r3, #1
    3760:	7043      	strb	r3, [r0, #1]
    3762:	7082      	strb	r2, [r0, #2]
    3764:	70c3      	strb	r3, [r0, #3]
    3766:	4770      	bx	lr

00003768 <usb_init>:
    3768:	2300      	movs	r3, #0
    376a:	b5f7      	push	{r0, r1, r2, r4, r5, r6, r7, lr}
    376c:	0004      	movs	r4, r0
    376e:	0017      	movs	r7, r2
    3770:	4a61      	ldr	r2, [pc, #388]	; (38f8 <usb_init+0x190>)
    3772:	000d      	movs	r5, r1
    3774:	6013      	str	r3, [r2, #0]
    3776:	4a61      	ldr	r2, [pc, #388]	; (38fc <usb_init+0x194>)
    3778:	6021      	str	r1, [r4, #0]
    377a:	6010      	str	r0, [r2, #0]
    377c:	2001      	movs	r0, #1
    377e:	4960      	ldr	r1, [pc, #384]	; (3900 <usb_init+0x198>)
    3780:	ae01      	add	r6, sp, #4
    3782:	698a      	ldr	r2, [r1, #24]
    3784:	4302      	orrs	r2, r0
    3786:	618a      	str	r2, [r1, #24]
    3788:	7073      	strb	r3, [r6, #1]
    378a:	70f3      	strb	r3, [r6, #3]
    378c:	3306      	adds	r3, #6
    378e:	70b0      	strb	r0, [r6, #2]
    3790:	7033      	strb	r3, [r6, #0]
    3792:	0031      	movs	r1, r6
    3794:	3017      	adds	r0, #23
    3796:	4b5b      	ldr	r3, [pc, #364]	; (3904 <usb_init+0x19c>)
    3798:	4798      	blx	r3
    379a:	2306      	movs	r3, #6
    379c:	0031      	movs	r1, r6
    379e:	7033      	strb	r3, [r6, #0]
    37a0:	2019      	movs	r0, #25
    37a2:	4b58      	ldr	r3, [pc, #352]	; (3904 <usb_init+0x19c>)
    37a4:	4798      	blx	r3
    37a6:	466a      	mov	r2, sp
    37a8:	78bb      	ldrb	r3, [r7, #2]
    37aa:	4669      	mov	r1, sp
    37ac:	7013      	strb	r3, [r2, #0]
    37ae:	2004      	movs	r0, #4
    37b0:	4b55      	ldr	r3, [pc, #340]	; (3908 <usb_init+0x1a0>)
    37b2:	4798      	blx	r3
    37b4:	4b55      	ldr	r3, [pc, #340]	; (390c <usb_init+0x1a4>)
    37b6:	2004      	movs	r0, #4
    37b8:	4798      	blx	r3
    37ba:	2201      	movs	r2, #1
    37bc:	782b      	ldrb	r3, [r5, #0]
    37be:	4313      	orrs	r3, r2
    37c0:	702b      	strb	r3, [r5, #0]
    37c2:	78ab      	ldrb	r3, [r5, #2]
    37c4:	07db      	lsls	r3, r3, #31
    37c6:	d4fc      	bmi.n	37c2 <usb_init+0x5a>
    37c8:	211f      	movs	r1, #31
    37ca:	4a51      	ldr	r2, [pc, #324]	; (3910 <usb_init+0x1a8>)
    37cc:	6813      	ldr	r3, [r2, #0]
    37ce:	0b5b      	lsrs	r3, r3, #13
    37d0:	400b      	ands	r3, r1
    37d2:	428b      	cmp	r3, r1
    37d4:	d100      	bne.n	37d8 <usb_init+0x70>
    37d6:	2305      	movs	r3, #5
    37d8:	8d28      	ldrh	r0, [r5, #40]	; 0x28
    37da:	4e4e      	ldr	r6, [pc, #312]	; (3914 <usb_init+0x1ac>)
    37dc:	400b      	ands	r3, r1
    37de:	019b      	lsls	r3, r3, #6
    37e0:	4030      	ands	r0, r6
    37e2:	4303      	orrs	r3, r0
    37e4:	852b      	strh	r3, [r5, #40]	; 0x28
    37e6:	6813      	ldr	r3, [r2, #0]
    37e8:	0c9b      	lsrs	r3, r3, #18
    37ea:	400b      	ands	r3, r1
    37ec:	2b1f      	cmp	r3, #31
    37ee:	d100      	bne.n	37f2 <usb_init+0x8a>
    37f0:	3b02      	subs	r3, #2
    37f2:	201f      	movs	r0, #31
    37f4:	8d29      	ldrh	r1, [r5, #40]	; 0x28
    37f6:	4003      	ands	r3, r0
    37f8:	4381      	bics	r1, r0
    37fa:	430b      	orrs	r3, r1
    37fc:	2107      	movs	r1, #7
    37fe:	852b      	strh	r3, [r5, #40]	; 0x28
    3800:	6813      	ldr	r3, [r2, #0]
    3802:	0ddb      	lsrs	r3, r3, #23
    3804:	400b      	ands	r3, r1
    3806:	428b      	cmp	r3, r1
    3808:	d100      	bne.n	380c <usb_init+0xa4>
    380a:	2303      	movs	r3, #3
    380c:	8d2a      	ldrh	r2, [r5, #40]	; 0x28
    380e:	400b      	ands	r3, r1
    3810:	4941      	ldr	r1, [pc, #260]	; (3918 <usb_init+0x1b0>)
    3812:	031b      	lsls	r3, r3, #12
    3814:	400a      	ands	r2, r1
    3816:	217f      	movs	r1, #127	; 0x7f
    3818:	4313      	orrs	r3, r2
    381a:	852b      	strh	r3, [r5, #40]	; 0x28
    381c:	782b      	ldrb	r3, [r5, #0]
    381e:	783a      	ldrb	r2, [r7, #0]
    3820:	400b      	ands	r3, r1
    3822:	01d2      	lsls	r2, r2, #7
    3824:	4313      	orrs	r3, r2
    3826:	702b      	strb	r3, [r5, #0]
    3828:	787a      	ldrb	r2, [r7, #1]
    382a:	782b      	ldrb	r3, [r5, #0]
    382c:	397e      	subs	r1, #126	; 0x7e
    382e:	400a      	ands	r2, r1
    3830:	3103      	adds	r1, #3
    3832:	0092      	lsls	r2, r2, #2
    3834:	438b      	bics	r3, r1
    3836:	4839      	ldr	r0, [pc, #228]	; (391c <usb_init+0x1b4>)
    3838:	4313      	orrs	r3, r2
    383a:	702b      	strb	r3, [r5, #0]
    383c:	6268      	str	r0, [r5, #36]	; 0x24
    383e:	78fb      	ldrb	r3, [r7, #3]
    3840:	2b01      	cmp	r3, #1
    3842:	d14f      	bne.n	38e4 <usb_init+0x17c>
    3844:	6822      	ldr	r2, [r4, #0]
    3846:	3108      	adds	r1, #8
    3848:	8913      	ldrh	r3, [r2, #8]
    384a:	438b      	bics	r3, r1
    384c:	8113      	strh	r3, [r2, #8]
    384e:	2280      	movs	r2, #128	; 0x80
    3850:	2100      	movs	r1, #0
    3852:	0052      	lsls	r2, r2, #1
    3854:	4b32      	ldr	r3, [pc, #200]	; (3920 <usb_init+0x1b8>)
    3856:	4798      	blx	r3
    3858:	0022      	movs	r2, r4
    385a:	2100      	movs	r1, #0
    385c:	1d23      	adds	r3, r4, #4
    385e:	3224      	adds	r2, #36	; 0x24
    3860:	c302      	stmia	r3!, {r1}
    3862:	4293      	cmp	r3, r2
    3864:	d1fc      	bne.n	3860 <usb_init+0xf8>
    3866:	0021      	movs	r1, r4
    3868:	2200      	movs	r2, #0
    386a:	31a4      	adds	r1, #164	; 0xa4
    386c:	601a      	str	r2, [r3, #0]
    386e:	605a      	str	r2, [r3, #4]
    3870:	609a      	str	r2, [r3, #8]
    3872:	60da      	str	r2, [r3, #12]
    3874:	3310      	adds	r3, #16
    3876:	428b      	cmp	r3, r1
    3878:	d1f8      	bne.n	386c <usb_init+0x104>
    387a:	701a      	strb	r2, [r3, #0]
    387c:	0023      	movs	r3, r4
    387e:	0021      	movs	r1, r4
    3880:	33a5      	adds	r3, #165	; 0xa5
    3882:	701a      	strb	r2, [r3, #0]
    3884:	2200      	movs	r2, #0
    3886:	3301      	adds	r3, #1
    3888:	31ae      	adds	r1, #174	; 0xae
    388a:	701a      	strb	r2, [r3, #0]
    388c:	721a      	strb	r2, [r3, #8]
    388e:	3301      	adds	r3, #1
    3890:	428b      	cmp	r3, r1
    3892:	d1fa      	bne.n	388a <usb_init+0x122>
    3894:	0023      	movs	r3, r4
    3896:	0022      	movs	r2, r4
    3898:	2100      	movs	r1, #0
    389a:	33b8      	adds	r3, #184	; 0xb8
    389c:	32d4      	adds	r2, #212	; 0xd4
    389e:	c302      	stmia	r3!, {r1}
    38a0:	4293      	cmp	r3, r2
    38a2:	d1fc      	bne.n	389e <usb_init+0x136>
    38a4:	0021      	movs	r1, r4
    38a6:	2200      	movs	r2, #0
    38a8:	3155      	adds	r1, #85	; 0x55
    38aa:	31ff      	adds	r1, #255	; 0xff
    38ac:	601a      	str	r2, [r3, #0]
    38ae:	605a      	str	r2, [r3, #4]
    38b0:	609a      	str	r2, [r3, #8]
    38b2:	60da      	str	r2, [r3, #12]
    38b4:	3310      	adds	r3, #16
    38b6:	4299      	cmp	r1, r3
    38b8:	d1f8      	bne.n	38ac <usb_init+0x144>
    38ba:	23aa      	movs	r3, #170	; 0xaa
    38bc:	005b      	lsls	r3, r3, #1
    38be:	52e2      	strh	r2, [r4, r3]
    38c0:	3302      	adds	r3, #2
    38c2:	52e2      	strh	r2, [r4, r3]
    38c4:	0023      	movs	r3, r4
    38c6:	2200      	movs	r2, #0
    38c8:	3359      	adds	r3, #89	; 0x59
    38ca:	3461      	adds	r4, #97	; 0x61
    38cc:	33ff      	adds	r3, #255	; 0xff
    38ce:	34ff      	adds	r4, #255	; 0xff
    38d0:	701a      	strb	r2, [r3, #0]
    38d2:	721a      	strb	r2, [r3, #8]
    38d4:	3301      	adds	r3, #1
    38d6:	429c      	cmp	r4, r3
    38d8:	d1fa      	bne.n	38d0 <usb_init+0x168>
    38da:	2240      	movs	r2, #64	; 0x40
    38dc:	4b11      	ldr	r3, [pc, #68]	; (3924 <usb_init+0x1bc>)
    38de:	2000      	movs	r0, #0
    38e0:	601a      	str	r2, [r3, #0]
    38e2:	bdfe      	pop	{r1, r2, r3, r4, r5, r6, r7, pc}
    38e4:	2b00      	cmp	r3, #0
    38e6:	d1b2      	bne.n	384e <usb_init+0xe6>
    38e8:	250c      	movs	r5, #12
    38ea:	6822      	ldr	r2, [r4, #0]
    38ec:	8913      	ldrh	r3, [r2, #8]
    38ee:	43ab      	bics	r3, r5
    38f0:	4319      	orrs	r1, r3
    38f2:	8111      	strh	r1, [r2, #8]
    38f4:	e7ab      	b.n	384e <usb_init+0xe6>
    38f6:	46c0      	nop			; (mov r8, r8)
    38f8:	20000748 	.word	0x20000748
    38fc:	20000738 	.word	0x20000738
    3900:	40000400 	.word	0x40000400
    3904:	000020cd 	.word	0x000020cd
    3908:	00001ff5 	.word	0x00001ff5
    390c:	00001f95 	.word	0x00001f95
    3910:	0080601c 	.word	0x0080601c
    3914:	fffff83f 	.word	0xfffff83f
    3918:	ffff8fff 	.word	0xffff8fff
    391c:	20000a34 	.word	0x20000a34
    3920:	000046fb 	.word	0x000046fb
    3924:	e000e100 	.word	0xe000e100

00003928 <Dummy_Handler>:
    3928:	e7fe      	b.n	3928 <Dummy_Handler>
	...

0000392c <Reset_Handler>:
    392c:	4811      	ldr	r0, [pc, #68]	; (3974 <Reset_Handler+0x48>)
    392e:	4912      	ldr	r1, [pc, #72]	; (3978 <Reset_Handler+0x4c>)
    3930:	b570      	push	{r4, r5, r6, lr}
    3932:	4288      	cmp	r0, r1
    3934:	d004      	beq.n	3940 <Reset_Handler+0x14>
    3936:	2300      	movs	r3, #0
    3938:	4c10      	ldr	r4, [pc, #64]	; (397c <Reset_Handler+0x50>)
    393a:	18ca      	adds	r2, r1, r3
    393c:	42a2      	cmp	r2, r4
    393e:	d313      	bcc.n	3968 <Reset_Handler+0x3c>
    3940:	2100      	movs	r1, #0
    3942:	4b0f      	ldr	r3, [pc, #60]	; (3980 <Reset_Handler+0x54>)
    3944:	4a0f      	ldr	r2, [pc, #60]	; (3984 <Reset_Handler+0x58>)
    3946:	4293      	cmp	r3, r2
    3948:	d312      	bcc.n	3970 <Reset_Handler+0x44>
    394a:	21ff      	movs	r1, #255	; 0xff
    394c:	4b0e      	ldr	r3, [pc, #56]	; (3988 <Reset_Handler+0x5c>)
    394e:	4a0f      	ldr	r2, [pc, #60]	; (398c <Reset_Handler+0x60>)
    3950:	438b      	bics	r3, r1
    3952:	6093      	str	r3, [r2, #8]
    3954:	2380      	movs	r3, #128	; 0x80
    3956:	4a0e      	ldr	r2, [pc, #56]	; (3990 <Reset_Handler+0x64>)
    3958:	6851      	ldr	r1, [r2, #4]
    395a:	430b      	orrs	r3, r1
    395c:	6053      	str	r3, [r2, #4]
    395e:	4b0d      	ldr	r3, [pc, #52]	; (3994 <Reset_Handler+0x68>)
    3960:	4798      	blx	r3
    3962:	4b0d      	ldr	r3, [pc, #52]	; (3998 <Reset_Handler+0x6c>)
    3964:	4798      	blx	r3
    3966:	e7fe      	b.n	3966 <Reset_Handler+0x3a>
    3968:	58c5      	ldr	r5, [r0, r3]
    396a:	3304      	adds	r3, #4
    396c:	6015      	str	r5, [r2, #0]
    396e:	e7e4      	b.n	393a <Reset_Handler+0xe>
    3970:	c302      	stmia	r3!, {r1}
    3972:	e7e8      	b.n	3946 <Reset_Handler+0x1a>
    3974:	000047b4 	.word	0x000047b4
    3978:	20000000 	.word	0x20000000
    397c:	20000114 	.word	0x20000114
    3980:	20000114 	.word	0x20000114
    3984:	20000cdc 	.word	0x20000cdc
    3988:	00000000 	.word	0x00000000
    398c:	e000ed00 	.word	0xe000ed00
    3990:	41004000 	.word	0x41004000
    3994:	000046a1 	.word	0x000046a1
    3998:	0000399d 	.word	0x0000399d

0000399c <main>:
    399c:	b513      	push	{r0, r1, r4, lr}
    399e:	4b1a      	ldr	r3, [pc, #104]	; (3a08 <main+0x6c>)
    39a0:	681a      	ldr	r2, [r3, #0]
    39a2:	1c53      	adds	r3, r2, #1
    39a4:	d016      	beq.n	39d4 <main+0x38>
    39a6:	2104      	movs	r1, #4
    39a8:	2406      	movs	r4, #6
    39aa:	4b18      	ldr	r3, [pc, #96]	; (3a0c <main+0x70>)
    39ac:	4818      	ldr	r0, [pc, #96]	; (3a10 <main+0x74>)
    39ae:	6059      	str	r1, [r3, #4]
    39b0:	7004      	strb	r4, [r0, #0]
    39b2:	6199      	str	r1, [r3, #24]
    39b4:	4669      	mov	r1, sp
    39b6:	6a1b      	ldr	r3, [r3, #32]
    39b8:	075b      	lsls	r3, r3, #29
    39ba:	0fdb      	lsrs	r3, r3, #31
    39bc:	71cb      	strb	r3, [r1, #7]
    39be:	79cb      	ldrb	r3, [r1, #7]
    39c0:	2b00      	cmp	r3, #0
    39c2:	d007      	beq.n	39d4 <main+0x38>
    39c4:	23c0      	movs	r3, #192	; 0xc0
    39c6:	01db      	lsls	r3, r3, #7
    39c8:	6819      	ldr	r1, [r3, #0]
    39ca:	f381 8808 	msr	MSP, r1
    39ce:	4911      	ldr	r1, [pc, #68]	; (3a14 <main+0x78>)
    39d0:	608b      	str	r3, [r1, #8]
    39d2:	4710      	bx	r2
    39d4:	4b10      	ldr	r3, [pc, #64]	; (3a18 <main+0x7c>)
    39d6:	4798      	blx	r3
    39d8:	4b10      	ldr	r3, [pc, #64]	; (3a1c <main+0x80>)
    39da:	4798      	blx	r3
    39dc:	4b10      	ldr	r3, [pc, #64]	; (3a20 <main+0x84>)
    39de:	4798      	blx	r3
    39e0:	4b10      	ldr	r3, [pc, #64]	; (3a24 <main+0x88>)
    39e2:	781b      	ldrb	r3, [r3, #0]
    39e4:	2b00      	cmp	r3, #0
    39e6:	d005      	beq.n	39f4 <main+0x58>
    39e8:	2000      	movs	r0, #0
    39ea:	4b0f      	ldr	r3, [pc, #60]	; (3a28 <main+0x8c>)
    39ec:	4798      	blx	r3
    39ee:	4b0f      	ldr	r3, [pc, #60]	; (3a2c <main+0x90>)
    39f0:	4798      	blx	r3
    39f2:	e7fc      	b.n	39ee <main+0x52>
    39f4:	4b0e      	ldr	r3, [pc, #56]	; (3a30 <main+0x94>)
    39f6:	4798      	blx	r3
    39f8:	2800      	cmp	r0, #0
    39fa:	d0f1      	beq.n	39e0 <main+0x44>
    39fc:	2001      	movs	r0, #1
    39fe:	4b0a      	ldr	r3, [pc, #40]	; (3a28 <main+0x8c>)
    3a00:	4798      	blx	r3
    3a02:	4b0a      	ldr	r3, [pc, #40]	; (3a2c <main+0x90>)
    3a04:	4798      	blx	r3
    3a06:	e7fc      	b.n	3a02 <main+0x66>
    3a08:	00006004 	.word	0x00006004
    3a0c:	40002800 	.word	0x40002800
    3a10:	40002842 	.word	0x40002842
    3a14:	e000ed00 	.word	0xe000ed00
    3a18:	000020fd 	.word	0x000020fd
    3a1c:	00000aa1 	.word	0x00000aa1
    3a20:	00003e39 	.word	0x00003e39
    3a24:	20000752 	.word	0x20000752
    3a28:	00003a5d 	.word	0x00003a5d
    3a2c:	00003b15 	.word	0x00003b15
    3a30:	00003f9d 	.word	0x00003f9d

00003a34 <main_suspend_lpm_action>:
    3a34:	4770      	bx	lr

00003a36 <main_remotewakeup_lpm_disable>:
    3a36:	4770      	bx	lr

00003a38 <main_remotewakeup_lpm_enable>:
    3a38:	4770      	bx	lr
	...

00003a3c <main_cdc_enable>:
    3a3c:	2001      	movs	r0, #1
    3a3e:	4b01      	ldr	r3, [pc, #4]	; (3a44 <main_cdc_enable+0x8>)
    3a40:	7018      	strb	r0, [r3, #0]
    3a42:	4770      	bx	lr
    3a44:	20000752 	.word	0x20000752

00003a48 <main_cdc_disable>:
    3a48:	2200      	movs	r2, #0
    3a4a:	4b01      	ldr	r3, [pc, #4]	; (3a50 <main_cdc_disable+0x8>)
    3a4c:	701a      	strb	r2, [r3, #0]
    3a4e:	4770      	bx	lr
    3a50:	20000752 	.word	0x20000752

00003a54 <main_cdc_set_dtr>:
    3a54:	4770      	bx	lr

00003a56 <main_cdc_rx_notify>:
    3a56:	4770      	bx	lr

00003a58 <main_cdc_set_coding>:
    3a58:	4770      	bx	lr
	...

00003a5c <sam_ba_monitor_init>:
    3a5c:	4a04      	ldr	r2, [pc, #16]	; (3a70 <sam_ba_monitor_init+0x14>)
    3a5e:	2801      	cmp	r0, #1
    3a60:	d002      	beq.n	3a68 <sam_ba_monitor_init+0xc>
    3a62:	2800      	cmp	r0, #0
    3a64:	d102      	bne.n	3a6c <sam_ba_monitor_init+0x10>
    3a66:	4a03      	ldr	r2, [pc, #12]	; (3a74 <sam_ba_monitor_init+0x18>)
    3a68:	4b03      	ldr	r3, [pc, #12]	; (3a78 <sam_ba_monitor_init+0x1c>)
    3a6a:	601a      	str	r2, [r3, #0]
    3a6c:	4770      	bx	lr
    3a6e:	46c0      	nop			; (mov r8, r8)
    3a70:	0000475c 	.word	0x0000475c
    3a74:	00004778 	.word	0x00004778
    3a78:	20000b8c 	.word	0x20000b8c

00003a7c <sam_ba_putdata_term>:
    3a7c:	b57f      	push	{r0, r1, r2, r3, r4, r5, r6, lr}
    3a7e:	4b19      	ldr	r3, [pc, #100]	; (3ae4 <sam_ba_putdata_term+0x68>)
    3a80:	781b      	ldrb	r3, [r3, #0]
    3a82:	2b00      	cmp	r3, #0
    3a84:	d017      	beq.n	3ab6 <sam_ba_putdata_term+0x3a>
    3a86:	2904      	cmp	r1, #4
    3a88:	d11a      	bne.n	3ac0 <sam_ba_putdata_term+0x44>
    3a8a:	6800      	ldr	r0, [r0, #0]
    3a8c:	466a      	mov	r2, sp
    3a8e:	250f      	movs	r5, #15
    3a90:	2630      	movs	r6, #48	; 0x30
    3a92:	0049      	lsls	r1, r1, #1
    3a94:	ab04      	add	r3, sp, #16
    3a96:	185b      	adds	r3, r3, r1
    3a98:	3b0b      	subs	r3, #11
    3a9a:	1d54      	adds	r4, r2, #5
    3a9c:	42a3      	cmp	r3, r4
    3a9e:	d115      	bne.n	3acc <sam_ba_putdata_term+0x50>
    3aa0:	2330      	movs	r3, #48	; 0x30
    3aa2:	220a      	movs	r2, #10
    3aa4:	a801      	add	r0, sp, #4
    3aa6:	7003      	strb	r3, [r0, #0]
    3aa8:	3348      	adds	r3, #72	; 0x48
    3aaa:	7043      	strb	r3, [r0, #1]
    3aac:	1843      	adds	r3, r0, r1
    3aae:	709a      	strb	r2, [r3, #2]
    3ab0:	3203      	adds	r2, #3
    3ab2:	70da      	strb	r2, [r3, #3]
    3ab4:	3104      	adds	r1, #4
    3ab6:	4b0c      	ldr	r3, [pc, #48]	; (3ae8 <sam_ba_putdata_term+0x6c>)
    3ab8:	681b      	ldr	r3, [r3, #0]
    3aba:	68db      	ldr	r3, [r3, #12]
    3abc:	4798      	blx	r3
    3abe:	bd7f      	pop	{r0, r1, r2, r3, r4, r5, r6, pc}
    3ac0:	2902      	cmp	r1, #2
    3ac2:	d101      	bne.n	3ac8 <sam_ba_putdata_term+0x4c>
    3ac4:	8800      	ldrh	r0, [r0, #0]
    3ac6:	e7e1      	b.n	3a8c <sam_ba_putdata_term+0x10>
    3ac8:	7800      	ldrb	r0, [r0, #0]
    3aca:	e7df      	b.n	3a8c <sam_ba_putdata_term+0x10>
    3acc:	0002      	movs	r2, r0
    3ace:	402a      	ands	r2, r5
    3ad0:	2a09      	cmp	r2, #9
    3ad2:	d804      	bhi.n	3ade <sam_ba_putdata_term+0x62>
    3ad4:	4332      	orrs	r2, r6
    3ad6:	701a      	strb	r2, [r3, #0]
    3ad8:	0900      	lsrs	r0, r0, #4
    3ada:	3b01      	subs	r3, #1
    3adc:	e7de      	b.n	3a9c <sam_ba_putdata_term+0x20>
    3ade:	3237      	adds	r2, #55	; 0x37
    3ae0:	e7f9      	b.n	3ad6 <sam_ba_putdata_term+0x5a>
    3ae2:	46c0      	nop			; (mov r8, r8)
    3ae4:	20000753 	.word	0x20000753
    3ae8:	20000b8c 	.word	0x20000b8c

00003aec <call_applet>:
    3aec:	b672      	cpsid	i
    3aee:	f3bf 8f5f 	dmb	sy
    3af2:	2200      	movs	r2, #0
    3af4:	4b05      	ldr	r3, [pc, #20]	; (3b0c <call_applet+0x20>)
    3af6:	701a      	strb	r2, [r3, #0]
    3af8:	f3ef 8308 	mrs	r3, MSP
    3afc:	4a04      	ldr	r2, [pc, #16]	; (3b10 <call_applet+0x24>)
    3afe:	6013      	str	r3, [r2, #0]
    3b00:	6803      	ldr	r3, [r0, #0]
    3b02:	f383 8808 	msr	MSP, r3
    3b06:	6843      	ldr	r3, [r0, #4]
    3b08:	4718      	bx	r3
    3b0a:	4770      	bx	lr
    3b0c:	20000110 	.word	0x20000110
    3b10:	20000b90 	.word	0x20000b90

00003b14 <sam_ba_monitor_run>:
    3b14:	2300      	movs	r3, #0
    3b16:	b5f7      	push	{r0, r1, r2, r4, r5, r6, r7, lr}
    3b18:	4cad      	ldr	r4, [pc, #692]	; (3dd0 <sam_ba_monitor_run+0x2bc>)
    3b1a:	4aae      	ldr	r2, [pc, #696]	; (3dd4 <sam_ba_monitor_run+0x2c0>)
    3b1c:	6023      	str	r3, [r4, #0]
    3b1e:	337a      	adds	r3, #122	; 0x7a
    3b20:	7013      	strb	r3, [r2, #0]
    3b22:	9301      	str	r3, [sp, #4]
    3b24:	4fac      	ldr	r7, [pc, #688]	; (3dd8 <sam_ba_monitor_run+0x2c4>)
    3b26:	4dad      	ldr	r5, [pc, #692]	; (3ddc <sam_ba_monitor_run+0x2c8>)
    3b28:	683b      	ldr	r3, [r7, #0]
    3b2a:	2140      	movs	r1, #64	; 0x40
    3b2c:	691b      	ldr	r3, [r3, #16]
    3b2e:	0028      	movs	r0, r5
    3b30:	4798      	blx	r3
    3b32:	2200      	movs	r2, #0
    3b34:	4baa      	ldr	r3, [pc, #680]	; (3de0 <sam_ba_monitor_run+0x2cc>)
    3b36:	6018      	str	r0, [r3, #0]
    3b38:	4baa      	ldr	r3, [pc, #680]	; (3de4 <sam_ba_monitor_run+0x2d0>)
    3b3a:	601d      	str	r5, [r3, #0]
    3b3c:	4baa      	ldr	r3, [pc, #680]	; (3de8 <sam_ba_monitor_run+0x2d4>)
    3b3e:	601a      	str	r2, [r3, #0]
    3b40:	4ba7      	ldr	r3, [pc, #668]	; (3de0 <sam_ba_monitor_run+0x2cc>)
    3b42:	4da9      	ldr	r5, [pc, #676]	; (3de8 <sam_ba_monitor_run+0x2d4>)
    3b44:	681b      	ldr	r3, [r3, #0]
    3b46:	9300      	str	r3, [sp, #0]
    3b48:	9a00      	ldr	r2, [sp, #0]
    3b4a:	682b      	ldr	r3, [r5, #0]
    3b4c:	4293      	cmp	r3, r2
    3b4e:	d2e9      	bcs.n	3b24 <sam_ba_monitor_run+0x10>
    3b50:	4ba4      	ldr	r3, [pc, #656]	; (3de4 <sam_ba_monitor_run+0x2d0>)
    3b52:	681b      	ldr	r3, [r3, #0]
    3b54:	781b      	ldrb	r3, [r3, #0]
    3b56:	2bff      	cmp	r3, #255	; 0xff
    3b58:	d03f      	beq.n	3bda <sam_ba_monitor_run+0xc6>
    3b5a:	2b23      	cmp	r3, #35	; 0x23
    3b5c:	d000      	beq.n	3b60 <sam_ba_monitor_run+0x4c>
    3b5e:	e112      	b.n	3d86 <sam_ba_monitor_run+0x272>
    3b60:	4ea2      	ldr	r6, [pc, #648]	; (3dec <sam_ba_monitor_run+0x2d8>)
    3b62:	7833      	ldrb	r3, [r6, #0]
    3b64:	2b00      	cmp	r3, #0
    3b66:	d005      	beq.n	3b74 <sam_ba_monitor_run+0x60>
    3b68:	4b9b      	ldr	r3, [pc, #620]	; (3dd8 <sam_ba_monitor_run+0x2c4>)
    3b6a:	2102      	movs	r1, #2
    3b6c:	681b      	ldr	r3, [r3, #0]
    3b6e:	48a0      	ldr	r0, [pc, #640]	; (3df0 <sam_ba_monitor_run+0x2dc>)
    3b70:	68db      	ldr	r3, [r3, #12]
    3b72:	4798      	blx	r3
    3b74:	4b97      	ldr	r3, [pc, #604]	; (3dd4 <sam_ba_monitor_run+0x2c0>)
    3b76:	781b      	ldrb	r3, [r3, #0]
    3b78:	2b53      	cmp	r3, #83	; 0x53
    3b7a:	d15f      	bne.n	3c3c <sam_ba_monitor_run+0x128>
    3b7c:	4b98      	ldr	r3, [pc, #608]	; (3de0 <sam_ba_monitor_run+0x2cc>)
    3b7e:	681a      	ldr	r2, [r3, #0]
    3b80:	682b      	ldr	r3, [r5, #0]
    3b82:	429a      	cmp	r2, r3
    3b84:	d82e      	bhi.n	3be4 <sam_ba_monitor_run+0xd0>
    3b86:	4a98      	ldr	r2, [pc, #608]	; (3de8 <sam_ba_monitor_run+0x2d4>)
    3b88:	6813      	ldr	r3, [r2, #0]
    3b8a:	3b01      	subs	r3, #1
    3b8c:	6013      	str	r3, [r2, #0]
    3b8e:	4a95      	ldr	r2, [pc, #596]	; (3de4 <sam_ba_monitor_run+0x2d0>)
    3b90:	6813      	ldr	r3, [r2, #0]
    3b92:	3b01      	subs	r3, #1
    3b94:	6013      	str	r3, [r2, #0]
    3b96:	4b97      	ldr	r3, [pc, #604]	; (3df4 <sam_ba_monitor_run+0x2e0>)
    3b98:	4a97      	ldr	r2, [pc, #604]	; (3df8 <sam_ba_monitor_run+0x2e4>)
    3b9a:	781b      	ldrb	r3, [r3, #0]
    3b9c:	6811      	ldr	r1, [r2, #0]
    3b9e:	428b      	cmp	r3, r1
    3ba0:	d205      	bcs.n	3bae <sam_ba_monitor_run+0x9a>
    3ba2:	1ac9      	subs	r1, r1, r3
    3ba4:	4b8c      	ldr	r3, [pc, #560]	; (3dd8 <sam_ba_monitor_run+0x2c4>)
    3ba6:	6820      	ldr	r0, [r4, #0]
    3ba8:	681b      	ldr	r3, [r3, #0]
    3baa:	699b      	ldr	r3, [r3, #24]
    3bac:	4798      	blx	r3
    3bae:	46c0      	nop			; (mov r8, r8)
    3bb0:	466a      	mov	r2, sp
    3bb2:	4b88      	ldr	r3, [pc, #544]	; (3dd4 <sam_ba_monitor_run+0x2c0>)
    3bb4:	7912      	ldrb	r2, [r2, #4]
    3bb6:	701a      	strb	r2, [r3, #0]
    3bb8:	2200      	movs	r2, #0
    3bba:	4b8f      	ldr	r3, [pc, #572]	; (3df8 <sam_ba_monitor_run+0x2e4>)
    3bbc:	601a      	str	r2, [r3, #0]
    3bbe:	4b8b      	ldr	r3, [pc, #556]	; (3dec <sam_ba_monitor_run+0x2d8>)
    3bc0:	781b      	ldrb	r3, [r3, #0]
    3bc2:	4293      	cmp	r3, r2
    3bc4:	d005      	beq.n	3bd2 <sam_ba_monitor_run+0xbe>
    3bc6:	4b84      	ldr	r3, [pc, #528]	; (3dd8 <sam_ba_monitor_run+0x2c4>)
    3bc8:	2101      	movs	r1, #1
    3bca:	681b      	ldr	r3, [r3, #0]
    3bcc:	488b      	ldr	r0, [pc, #556]	; (3dfc <sam_ba_monitor_run+0x2e8>)
    3bce:	68db      	ldr	r3, [r3, #12]
    3bd0:	4798      	blx	r3
    3bd2:	4a84      	ldr	r2, [pc, #528]	; (3de4 <sam_ba_monitor_run+0x2d0>)
    3bd4:	6813      	ldr	r3, [r2, #0]
    3bd6:	3301      	adds	r3, #1
    3bd8:	6013      	str	r3, [r2, #0]
    3bda:	4a83      	ldr	r2, [pc, #524]	; (3de8 <sam_ba_monitor_run+0x2d4>)
    3bdc:	6813      	ldr	r3, [r2, #0]
    3bde:	3301      	adds	r3, #1
    3be0:	6013      	str	r3, [r2, #0]
    3be2:	e7ad      	b.n	3b40 <sam_ba_monitor_run+0x2c>
    3be4:	487f      	ldr	r0, [pc, #508]	; (3de4 <sam_ba_monitor_run+0x2d0>)
    3be6:	3301      	adds	r3, #1
    3be8:	6801      	ldr	r1, [r0, #0]
    3bea:	602b      	str	r3, [r5, #0]
    3bec:	3101      	adds	r1, #1
    3bee:	6001      	str	r1, [r0, #0]
    3bf0:	4981      	ldr	r1, [pc, #516]	; (3df8 <sam_ba_monitor_run+0x2e4>)
    3bf2:	1ad3      	subs	r3, r2, r3
    3bf4:	6809      	ldr	r1, [r1, #0]
    3bf6:	428b      	cmp	r3, r1
    3bf8:	d900      	bls.n	3bfc <sam_ba_monitor_run+0xe8>
    3bfa:	000b      	movs	r3, r1
    3bfc:	4a80      	ldr	r2, [pc, #512]	; (3e00 <sam_ba_monitor_run+0x2ec>)
    3bfe:	4880      	ldr	r0, [pc, #512]	; (3e00 <sam_ba_monitor_run+0x2ec>)
    3c00:	6013      	str	r3, [r2, #0]
    3c02:	2200      	movs	r2, #0
    3c04:	4b7b      	ldr	r3, [pc, #492]	; (3df4 <sam_ba_monitor_run+0x2e0>)
    3c06:	4978      	ldr	r1, [pc, #480]	; (3de8 <sam_ba_monitor_run+0x2d4>)
    3c08:	701a      	strb	r2, [r3, #0]
    3c0a:	781a      	ldrb	r2, [r3, #0]
    3c0c:	6805      	ldr	r5, [r0, #0]
    3c0e:	42aa      	cmp	r2, r5
    3c10:	d2b9      	bcs.n	3b86 <sam_ba_monitor_run+0x72>
    3c12:	4a74      	ldr	r2, [pc, #464]	; (3de4 <sam_ba_monitor_run+0x2d0>)
    3c14:	6825      	ldr	r5, [r4, #0]
    3c16:	6812      	ldr	r2, [r2, #0]
    3c18:	7812      	ldrb	r2, [r2, #0]
    3c1a:	702a      	strb	r2, [r5, #0]
    3c1c:	6822      	ldr	r2, [r4, #0]
    3c1e:	4d71      	ldr	r5, [pc, #452]	; (3de4 <sam_ba_monitor_run+0x2d0>)
    3c20:	3201      	adds	r2, #1
    3c22:	6022      	str	r2, [r4, #0]
    3c24:	4a6f      	ldr	r2, [pc, #444]	; (3de4 <sam_ba_monitor_run+0x2d0>)
    3c26:	6812      	ldr	r2, [r2, #0]
    3c28:	9200      	str	r2, [sp, #0]
    3c2a:	3201      	adds	r2, #1
    3c2c:	602a      	str	r2, [r5, #0]
    3c2e:	680a      	ldr	r2, [r1, #0]
    3c30:	3201      	adds	r2, #1
    3c32:	600a      	str	r2, [r1, #0]
    3c34:	781a      	ldrb	r2, [r3, #0]
    3c36:	3201      	adds	r2, #1
    3c38:	701a      	strb	r2, [r3, #0]
    3c3a:	e7e6      	b.n	3c0a <sam_ba_monitor_run+0xf6>
    3c3c:	2b52      	cmp	r3, #82	; 0x52
    3c3e:	d107      	bne.n	3c50 <sam_ba_monitor_run+0x13c>
    3c40:	4b65      	ldr	r3, [pc, #404]	; (3dd8 <sam_ba_monitor_run+0x2c4>)
    3c42:	4a6d      	ldr	r2, [pc, #436]	; (3df8 <sam_ba_monitor_run+0x2e4>)
    3c44:	681b      	ldr	r3, [r3, #0]
    3c46:	6811      	ldr	r1, [r2, #0]
    3c48:	695b      	ldr	r3, [r3, #20]
    3c4a:	6820      	ldr	r0, [r4, #0]
    3c4c:	4798      	blx	r3
    3c4e:	e7af      	b.n	3bb0 <sam_ba_monitor_run+0x9c>
    3c50:	2b4f      	cmp	r3, #79	; 0x4f
    3c52:	d104      	bne.n	3c5e <sam_ba_monitor_run+0x14a>
    3c54:	4b68      	ldr	r3, [pc, #416]	; (3df8 <sam_ba_monitor_run+0x2e4>)
    3c56:	6822      	ldr	r2, [r4, #0]
    3c58:	681b      	ldr	r3, [r3, #0]
    3c5a:	7013      	strb	r3, [r2, #0]
    3c5c:	e7a8      	b.n	3bb0 <sam_ba_monitor_run+0x9c>
    3c5e:	2b48      	cmp	r3, #72	; 0x48
    3c60:	d104      	bne.n	3c6c <sam_ba_monitor_run+0x158>
    3c62:	4b65      	ldr	r3, [pc, #404]	; (3df8 <sam_ba_monitor_run+0x2e4>)
    3c64:	6822      	ldr	r2, [r4, #0]
    3c66:	681b      	ldr	r3, [r3, #0]
    3c68:	8013      	strh	r3, [r2, #0]
    3c6a:	e7a1      	b.n	3bb0 <sam_ba_monitor_run+0x9c>
    3c6c:	2b57      	cmp	r3, #87	; 0x57
    3c6e:	d104      	bne.n	3c7a <sam_ba_monitor_run+0x166>
    3c70:	4a61      	ldr	r2, [pc, #388]	; (3df8 <sam_ba_monitor_run+0x2e4>)
    3c72:	6823      	ldr	r3, [r4, #0]
    3c74:	6812      	ldr	r2, [r2, #0]
    3c76:	601a      	str	r2, [r3, #0]
    3c78:	e79a      	b.n	3bb0 <sam_ba_monitor_run+0x9c>
    3c7a:	2b6f      	cmp	r3, #111	; 0x6f
    3c7c:	d104      	bne.n	3c88 <sam_ba_monitor_run+0x174>
    3c7e:	2101      	movs	r1, #1
    3c80:	6820      	ldr	r0, [r4, #0]
    3c82:	4b60      	ldr	r3, [pc, #384]	; (3e04 <sam_ba_monitor_run+0x2f0>)
    3c84:	4798      	blx	r3
    3c86:	e793      	b.n	3bb0 <sam_ba_monitor_run+0x9c>
    3c88:	2b68      	cmp	r3, #104	; 0x68
    3c8a:	d105      	bne.n	3c98 <sam_ba_monitor_run+0x184>
    3c8c:	6823      	ldr	r3, [r4, #0]
    3c8e:	485a      	ldr	r0, [pc, #360]	; (3df8 <sam_ba_monitor_run+0x2e4>)
    3c90:	881b      	ldrh	r3, [r3, #0]
    3c92:	2102      	movs	r1, #2
    3c94:	6003      	str	r3, [r0, #0]
    3c96:	e7f4      	b.n	3c82 <sam_ba_monitor_run+0x16e>
    3c98:	2b77      	cmp	r3, #119	; 0x77
    3c9a:	d105      	bne.n	3ca8 <sam_ba_monitor_run+0x194>
    3c9c:	6823      	ldr	r3, [r4, #0]
    3c9e:	4856      	ldr	r0, [pc, #344]	; (3df8 <sam_ba_monitor_run+0x2e4>)
    3ca0:	681b      	ldr	r3, [r3, #0]
    3ca2:	2104      	movs	r1, #4
    3ca4:	6003      	str	r3, [r0, #0]
    3ca6:	e7ec      	b.n	3c82 <sam_ba_monitor_run+0x16e>
    3ca8:	2b47      	cmp	r3, #71	; 0x47
    3caa:	d10e      	bne.n	3cca <sam_ba_monitor_run+0x1b6>
    3cac:	4b52      	ldr	r3, [pc, #328]	; (3df8 <sam_ba_monitor_run+0x2e4>)
    3cae:	6818      	ldr	r0, [r3, #0]
    3cb0:	4b55      	ldr	r3, [pc, #340]	; (3e08 <sam_ba_monitor_run+0x2f4>)
    3cb2:	4798      	blx	r3
    3cb4:	4b55      	ldr	r3, [pc, #340]	; (3e0c <sam_ba_monitor_run+0x2f8>)
    3cb6:	681b      	ldr	r3, [r3, #0]
    3cb8:	f383 8808 	msr	MSP, r3
    3cbc:	2201      	movs	r2, #1
    3cbe:	4b54      	ldr	r3, [pc, #336]	; (3e10 <sam_ba_monitor_run+0x2fc>)
    3cc0:	701a      	strb	r2, [r3, #0]
    3cc2:	f3bf 8f5f 	dmb	sy
    3cc6:	b662      	cpsie	i
    3cc8:	e772      	b.n	3bb0 <sam_ba_monitor_run+0x9c>
    3cca:	2b54      	cmp	r3, #84	; 0x54
    3ccc:	d107      	bne.n	3cde <sam_ba_monitor_run+0x1ca>
    3cce:	3b53      	subs	r3, #83	; 0x53
    3cd0:	7033      	strb	r3, [r6, #0]
    3cd2:	4b41      	ldr	r3, [pc, #260]	; (3dd8 <sam_ba_monitor_run+0x2c4>)
    3cd4:	681b      	ldr	r3, [r3, #0]
    3cd6:	68db      	ldr	r3, [r3, #12]
    3cd8:	2102      	movs	r1, #2
    3cda:	4845      	ldr	r0, [pc, #276]	; (3df0 <sam_ba_monitor_run+0x2dc>)
    3cdc:	e7b6      	b.n	3c4c <sam_ba_monitor_run+0x138>
    3cde:	2b4e      	cmp	r3, #78	; 0x4e
    3ce0:	d10c      	bne.n	3cfc <sam_ba_monitor_run+0x1e8>
    3ce2:	7833      	ldrb	r3, [r6, #0]
    3ce4:	2b00      	cmp	r3, #0
    3ce6:	d105      	bne.n	3cf4 <sam_ba_monitor_run+0x1e0>
    3ce8:	4b3b      	ldr	r3, [pc, #236]	; (3dd8 <sam_ba_monitor_run+0x2c4>)
    3cea:	2102      	movs	r1, #2
    3cec:	681b      	ldr	r3, [r3, #0]
    3cee:	4840      	ldr	r0, [pc, #256]	; (3df0 <sam_ba_monitor_run+0x2dc>)
    3cf0:	68db      	ldr	r3, [r3, #12]
    3cf2:	4798      	blx	r3
    3cf4:	2200      	movs	r2, #0
    3cf6:	4b3d      	ldr	r3, [pc, #244]	; (3dec <sam_ba_monitor_run+0x2d8>)
    3cf8:	701a      	strb	r2, [r3, #0]
    3cfa:	e759      	b.n	3bb0 <sam_ba_monitor_run+0x9c>
    3cfc:	2b56      	cmp	r3, #86	; 0x56
    3cfe:	d000      	beq.n	3d02 <sam_ba_monitor_run+0x1ee>
    3d00:	e756      	b.n	3bb0 <sam_ba_monitor_run+0x9c>
    3d02:	683b      	ldr	r3, [r7, #0]
    3d04:	2101      	movs	r1, #1
    3d06:	68db      	ldr	r3, [r3, #12]
    3d08:	4842      	ldr	r0, [pc, #264]	; (3e14 <sam_ba_monitor_run+0x300>)
    3d0a:	4798      	blx	r3
    3d0c:	683b      	ldr	r3, [r7, #0]
    3d0e:	2104      	movs	r1, #4
    3d10:	68db      	ldr	r3, [r3, #12]
    3d12:	4841      	ldr	r0, [pc, #260]	; (3e18 <sam_ba_monitor_run+0x304>)
    3d14:	4798      	blx	r3
    3d16:	683b      	ldr	r3, [r7, #0]
    3d18:	2101      	movs	r1, #1
    3d1a:	68db      	ldr	r3, [r3, #12]
    3d1c:	483f      	ldr	r0, [pc, #252]	; (3e1c <sam_ba_monitor_run+0x308>)
    3d1e:	4798      	blx	r3
    3d20:	4b3f      	ldr	r3, [pc, #252]	; (3e20 <sam_ba_monitor_run+0x30c>)
    3d22:	4a30      	ldr	r2, [pc, #192]	; (3de4 <sam_ba_monitor_run+0x2d0>)
    3d24:	6013      	str	r3, [r2, #0]
    3d26:	2300      	movs	r3, #0
    3d28:	602b      	str	r3, [r5, #0]
    3d2a:	4b2e      	ldr	r3, [pc, #184]	; (3de4 <sam_ba_monitor_run+0x2d0>)
    3d2c:	492d      	ldr	r1, [pc, #180]	; (3de4 <sam_ba_monitor_run+0x2d0>)
    3d2e:	681b      	ldr	r3, [r3, #0]
    3d30:	1c5a      	adds	r2, r3, #1
    3d32:	600a      	str	r2, [r1, #0]
    3d34:	781b      	ldrb	r3, [r3, #0]
    3d36:	9300      	str	r3, [sp, #0]
    3d38:	2b00      	cmp	r3, #0
    3d3a:	d11d      	bne.n	3d78 <sam_ba_monitor_run+0x264>
    3d3c:	4e26      	ldr	r6, [pc, #152]	; (3dd8 <sam_ba_monitor_run+0x2c4>)
    3d3e:	6829      	ldr	r1, [r5, #0]
    3d40:	6833      	ldr	r3, [r6, #0]
    3d42:	4837      	ldr	r0, [pc, #220]	; (3e20 <sam_ba_monitor_run+0x30c>)
    3d44:	68db      	ldr	r3, [r3, #12]
    3d46:	4798      	blx	r3
    3d48:	6833      	ldr	r3, [r6, #0]
    3d4a:	2101      	movs	r1, #1
    3d4c:	68db      	ldr	r3, [r3, #12]
    3d4e:	4833      	ldr	r0, [pc, #204]	; (3e1c <sam_ba_monitor_run+0x308>)
    3d50:	4798      	blx	r3
    3d52:	9b00      	ldr	r3, [sp, #0]
    3d54:	4a23      	ldr	r2, [pc, #140]	; (3de4 <sam_ba_monitor_run+0x2d0>)
    3d56:	602b      	str	r3, [r5, #0]
    3d58:	4b32      	ldr	r3, [pc, #200]	; (3e24 <sam_ba_monitor_run+0x310>)
    3d5a:	4923      	ldr	r1, [pc, #140]	; (3de8 <sam_ba_monitor_run+0x2d4>)
    3d5c:	6013      	str	r3, [r2, #0]
    3d5e:	6813      	ldr	r3, [r2, #0]
    3d60:	1c58      	adds	r0, r3, #1
    3d62:	6010      	str	r0, [r2, #0]
    3d64:	781b      	ldrb	r3, [r3, #0]
    3d66:	2b00      	cmp	r3, #0
    3d68:	d109      	bne.n	3d7e <sam_ba_monitor_run+0x26a>
    3d6a:	6833      	ldr	r3, [r6, #0]
    3d6c:	6829      	ldr	r1, [r5, #0]
    3d6e:	68db      	ldr	r3, [r3, #12]
    3d70:	482c      	ldr	r0, [pc, #176]	; (3e24 <sam_ba_monitor_run+0x310>)
    3d72:	4798      	blx	r3
    3d74:	6833      	ldr	r3, [r6, #0]
    3d76:	e7ae      	b.n	3cd6 <sam_ba_monitor_run+0x1c2>
    3d78:	682b      	ldr	r3, [r5, #0]
    3d7a:	3301      	adds	r3, #1
    3d7c:	e7d4      	b.n	3d28 <sam_ba_monitor_run+0x214>
    3d7e:	680b      	ldr	r3, [r1, #0]
    3d80:	3301      	adds	r3, #1
    3d82:	600b      	str	r3, [r1, #0]
    3d84:	e7eb      	b.n	3d5e <sam_ba_monitor_run+0x24a>
    3d86:	0019      	movs	r1, r3
    3d88:	3930      	subs	r1, #48	; 0x30
    3d8a:	b2c8      	uxtb	r0, r1
    3d8c:	4a1a      	ldr	r2, [pc, #104]	; (3df8 <sam_ba_monitor_run+0x2e4>)
    3d8e:	2809      	cmp	r0, #9
    3d90:	d804      	bhi.n	3d9c <sam_ba_monitor_run+0x288>
    3d92:	6813      	ldr	r3, [r2, #0]
    3d94:	011b      	lsls	r3, r3, #4
    3d96:	430b      	orrs	r3, r1
    3d98:	6013      	str	r3, [r2, #0]
    3d9a:	e71a      	b.n	3bd2 <sam_ba_monitor_run+0xbe>
    3d9c:	0019      	movs	r1, r3
    3d9e:	3941      	subs	r1, #65	; 0x41
    3da0:	2905      	cmp	r1, #5
    3da2:	d803      	bhi.n	3dac <sam_ba_monitor_run+0x298>
    3da4:	6811      	ldr	r1, [r2, #0]
    3da6:	3b37      	subs	r3, #55	; 0x37
    3da8:	0109      	lsls	r1, r1, #4
    3daa:	e7f4      	b.n	3d96 <sam_ba_monitor_run+0x282>
    3dac:	0019      	movs	r1, r3
    3dae:	3961      	subs	r1, #97	; 0x61
    3db0:	2905      	cmp	r1, #5
    3db2:	d803      	bhi.n	3dbc <sam_ba_monitor_run+0x2a8>
    3db4:	6811      	ldr	r1, [r2, #0]
    3db6:	3b57      	subs	r3, #87	; 0x57
    3db8:	0109      	lsls	r1, r1, #4
    3dba:	e7ec      	b.n	3d96 <sam_ba_monitor_run+0x282>
    3dbc:	2b2c      	cmp	r3, #44	; 0x2c
    3dbe:	d103      	bne.n	3dc8 <sam_ba_monitor_run+0x2b4>
    3dc0:	6813      	ldr	r3, [r2, #0]
    3dc2:	6023      	str	r3, [r4, #0]
    3dc4:	2300      	movs	r3, #0
    3dc6:	e7e7      	b.n	3d98 <sam_ba_monitor_run+0x284>
    3dc8:	4902      	ldr	r1, [pc, #8]	; (3dd4 <sam_ba_monitor_run+0x2c0>)
    3dca:	700b      	strb	r3, [r1, #0]
    3dcc:	e7fa      	b.n	3dc4 <sam_ba_monitor_run+0x2b0>
    3dce:	46c0      	nop			; (mov r8, r8)
    3dd0:	20000b88 	.word	0x20000b88
    3dd4:	20000b40 	.word	0x20000b40
    3dd8:	20000b8c 	.word	0x20000b8c
    3ddc:	20000b48 	.word	0x20000b48
    3de0:	20000b38 	.word	0x20000b38
    3de4:	20000b3c 	.word	0x20000b3c
    3de8:	20000b44 	.word	0x20000b44
    3dec:	20000753 	.word	0x20000753
    3df0:	0000473b 	.word	0x0000473b
    3df4:	20000b34 	.word	0x20000b34
    3df8:	20000b94 	.word	0x20000b94
    3dfc:	00004757 	.word	0x00004757
    3e00:	20000b98 	.word	0x20000b98
    3e04:	00003a7d 	.word	0x00003a7d
    3e08:	00003aed 	.word	0x00003aed
    3e0c:	20000b90 	.word	0x20000b90
    3e10:	20000110 	.word	0x20000110
    3e14:	0000473e 	.word	0x0000473e
    3e18:	00004736 	.word	0x00004736
    3e1c:	00004740 	.word	0x00004740
    3e20:	00004742 	.word	0x00004742
    3e24:	0000474e 	.word	0x0000474e

00003e28 <_usart_wait_for_sync.constprop.4>:
    3e28:	4b02      	ldr	r3, [pc, #8]	; (3e34 <_usart_wait_for_sync.constprop.4+0xc>)
    3e2a:	681a      	ldr	r2, [r3, #0]
    3e2c:	69d3      	ldr	r3, [r2, #28]
    3e2e:	2b00      	cmp	r3, #0
    3e30:	d1fc      	bne.n	3e2c <_usart_wait_for_sync.constprop.4+0x4>
    3e32:	4770      	bx	lr
    3e34:	20000ba4 	.word	0x20000ba4

00003e38 <usart_open>:
    3e38:	b5f0      	push	{r4, r5, r6, r7, lr}
    3e3a:	2380      	movs	r3, #128	; 0x80
    3e3c:	b091      	sub	sp, #68	; 0x44
    3e3e:	4669      	mov	r1, sp
    3e40:	22ff      	movs	r2, #255	; 0xff
    3e42:	05db      	lsls	r3, r3, #23
    3e44:	9300      	str	r3, [sp, #0]
    3e46:	2300      	movs	r3, #0
    3e48:	810a      	strh	r2, [r1, #8]
    3e4a:	2201      	movs	r2, #1
    3e4c:	728b      	strb	r3, [r1, #10]
    3e4e:	72cb      	strb	r3, [r1, #11]
    3e50:	3105      	adds	r1, #5
    3e52:	77ca      	strb	r2, [r1, #31]
    3e54:	4669      	mov	r1, sp
    3e56:	3106      	adds	r1, #6
    3e58:	77ca      	strb	r2, [r1, #31]
    3e5a:	466a      	mov	r2, sp
    3e5c:	3207      	adds	r2, #7
    3e5e:	77d3      	strb	r3, [r2, #31]
    3e60:	aa02      	add	r2, sp, #8
    3e62:	77d3      	strb	r3, [r2, #31]
    3e64:	aa0b      	add	r2, sp, #44	; 0x2c
    3e66:	7013      	strb	r3, [r2, #0]
    3e68:	222d      	movs	r2, #45	; 0x2d
    3e6a:	446a      	add	r2, sp
    3e6c:	7013      	strb	r3, [r2, #0]
    3e6e:	4669      	mov	r1, sp
    3e70:	466a      	mov	r2, sp
    3e72:	9301      	str	r3, [sp, #4]
    3e74:	8213      	strh	r3, [r2, #16]
    3e76:	76d3      	strb	r3, [r2, #27]
    3e78:	7613      	strb	r3, [r2, #24]
    3e7a:	7713      	strb	r3, [r2, #28]
    3e7c:	7653      	strb	r3, [r2, #25]
    3e7e:	930a      	str	r3, [sp, #40]	; 0x28
    3e80:	930e      	str	r3, [sp, #56]	; 0x38
    3e82:	930f      	str	r3, [sp, #60]	; 0x3c
    3e84:	9305      	str	r3, [sp, #20]
    3e86:	774b      	strb	r3, [r1, #29]
    3e88:	23e1      	movs	r3, #225	; 0xe1
    3e8a:	025b      	lsls	r3, r3, #9
    3e8c:	9308      	str	r3, [sp, #32]
    3e8e:	2380      	movs	r3, #128	; 0x80
    3e90:	2213      	movs	r2, #19
    3e92:	035b      	lsls	r3, r3, #13
    3e94:	9303      	str	r3, [sp, #12]
    3e96:	4b1f      	ldr	r3, [pc, #124]	; (3f14 <usart_open+0xdc>)
    3e98:	768a      	strb	r2, [r1, #26]
    3e9a:	930c      	str	r3, [sp, #48]	; 0x30
    3e9c:	4b1e      	ldr	r3, [pc, #120]	; (3f18 <usart_open+0xe0>)
    3e9e:	930d      	str	r3, [sp, #52]	; 0x34
    3ea0:	4d1e      	ldr	r5, [pc, #120]	; (3f1c <usart_open+0xe4>)
    3ea2:	466a      	mov	r2, sp
    3ea4:	491e      	ldr	r1, [pc, #120]	; (3f20 <usart_open+0xe8>)
    3ea6:	0028      	movs	r0, r5
    3ea8:	4b1e      	ldr	r3, [pc, #120]	; (3f24 <usart_open+0xec>)
    3eaa:	4798      	blx	r3
    3eac:	1e04      	subs	r4, r0, #0
    3eae:	d1f7      	bne.n	3ea0 <usart_open+0x68>
    3eb0:	682f      	ldr	r7, [r5, #0]
    3eb2:	4b1d      	ldr	r3, [pc, #116]	; (3f28 <usart_open+0xf0>)
    3eb4:	0038      	movs	r0, r7
    3eb6:	4798      	blx	r3
    3eb8:	231f      	movs	r3, #31
    3eba:	2201      	movs	r2, #1
    3ebc:	4018      	ands	r0, r3
    3ebe:	4082      	lsls	r2, r0
    3ec0:	4b1a      	ldr	r3, [pc, #104]	; (3f2c <usart_open+0xf4>)
    3ec2:	4e1b      	ldr	r6, [pc, #108]	; (3f30 <usart_open+0xf8>)
    3ec4:	601a      	str	r2, [r3, #0]
    3ec6:	47b0      	blx	r6
    3ec8:	2302      	movs	r3, #2
    3eca:	683a      	ldr	r2, [r7, #0]
    3ecc:	4313      	orrs	r3, r2
    3ece:	603b      	str	r3, [r7, #0]
    3ed0:	682f      	ldr	r7, [r5, #0]
    3ed2:	47b0      	blx	r6
    3ed4:	2380      	movs	r3, #128	; 0x80
    3ed6:	687a      	ldr	r2, [r7, #4]
    3ed8:	025b      	lsls	r3, r3, #9
    3eda:	4313      	orrs	r3, r2
    3edc:	607b      	str	r3, [r7, #4]
    3ede:	2301      	movs	r3, #1
    3ee0:	71eb      	strb	r3, [r5, #7]
    3ee2:	47b0      	blx	r6
    3ee4:	682f      	ldr	r7, [r5, #0]
    3ee6:	47b0      	blx	r6
    3ee8:	2380      	movs	r3, #128	; 0x80
    3eea:	687a      	ldr	r2, [r7, #4]
    3eec:	029b      	lsls	r3, r3, #10
    3eee:	4313      	orrs	r3, r2
    3ef0:	607b      	str	r3, [r7, #4]
    3ef2:	2301      	movs	r3, #1
    3ef4:	71ab      	strb	r3, [r5, #6]
    3ef6:	47b0      	blx	r6
    3ef8:	4b0e      	ldr	r3, [pc, #56]	; (3f34 <usart_open+0xfc>)
    3efa:	701c      	strb	r4, [r3, #0]
    3efc:	4b0e      	ldr	r3, [pc, #56]	; (3f38 <usart_open+0x100>)
    3efe:	701c      	strb	r4, [r3, #0]
    3f00:	4b0e      	ldr	r3, [pc, #56]	; (3f3c <usart_open+0x104>)
    3f02:	701c      	strb	r4, [r3, #0]
    3f04:	4b0e      	ldr	r3, [pc, #56]	; (3f40 <usart_open+0x108>)
    3f06:	701c      	strb	r4, [r3, #0]
    3f08:	4b0e      	ldr	r3, [pc, #56]	; (3f44 <usart_open+0x10c>)
    3f0a:	701c      	strb	r4, [r3, #0]
    3f0c:	4b0e      	ldr	r3, [pc, #56]	; (3f48 <usart_open+0x110>)
    3f0e:	701c      	strb	r4, [r3, #0]
    3f10:	b011      	add	sp, #68	; 0x44
    3f12:	bdf0      	pop	{r4, r5, r6, r7, pc}
    3f14:	00160002 	.word	0x00160002
    3f18:	00170002 	.word	0x00170002
    3f1c:	20000ba4 	.word	0x20000ba4
    3f20:	42000c00 	.word	0x42000c00
    3f24:	00001435 	.word	0x00001435
    3f28:	000013a9 	.word	0x000013a9
    3f2c:	e000e100 	.word	0xe000e100
    3f30:	00003e29 	.word	0x00003e29
    3f34:	20000b9c 	.word	0x20000b9c
    3f38:	20000c5a 	.word	0x20000c5a
    3f3c:	20000b9d 	.word	0x20000b9d
    3f40:	20000ba0 	.word	0x20000ba0
    3f44:	20000c5b 	.word	0x20000c5b
    3f48:	20000c58 	.word	0x20000c58

00003f4c <usart_putc>:
    3f4c:	b510      	push	{r4, lr}
    3f4e:	b281      	uxth	r1, r0
    3f50:	4b02      	ldr	r3, [pc, #8]	; (3f5c <usart_putc+0x10>)
    3f52:	4803      	ldr	r0, [pc, #12]	; (3f60 <usart_putc+0x14>)
    3f54:	4798      	blx	r3
    3f56:	2001      	movs	r0, #1
    3f58:	bd10      	pop	{r4, pc}
    3f5a:	46c0      	nop			; (mov r8, r8)
    3f5c:	0000170d 	.word	0x0000170d
    3f60:	20000ba4 	.word	0x20000ba4

00003f64 <usart_is_rx_ready>:
    3f64:	4b02      	ldr	r3, [pc, #8]	; (3f70 <usart_is_rx_ready+0xc>)
    3f66:	7e18      	ldrb	r0, [r3, #24]
    3f68:	0740      	lsls	r0, r0, #29
    3f6a:	0fc0      	lsrs	r0, r0, #31
    3f6c:	4770      	bx	lr
    3f6e:	46c0      	nop			; (mov r8, r8)
    3f70:	42000c00 	.word	0x42000c00

00003f74 <usart_getc>:
    3f74:	b513      	push	{r0, r1, r4, lr}
    3f76:	4b06      	ldr	r3, [pc, #24]	; (3f90 <usart_getc+0x1c>)
    3f78:	4798      	blx	r3
    3f7a:	2800      	cmp	r0, #0
    3f7c:	d0fb      	beq.n	3f76 <usart_getc+0x2>
    3f7e:	466b      	mov	r3, sp
    3f80:	1d9c      	adds	r4, r3, #6
    3f82:	0021      	movs	r1, r4
    3f84:	4b03      	ldr	r3, [pc, #12]	; (3f94 <usart_getc+0x20>)
    3f86:	4804      	ldr	r0, [pc, #16]	; (3f98 <usart_getc+0x24>)
    3f88:	4798      	blx	r3
    3f8a:	8820      	ldrh	r0, [r4, #0]
    3f8c:	bd16      	pop	{r1, r2, r4, pc}
    3f8e:	46c0      	nop			; (mov r8, r8)
    3f90:	00003f65 	.word	0x00003f65
    3f94:	0000172f 	.word	0x0000172f
    3f98:	20000ba4 	.word	0x20000ba4

00003f9c <usart_sharp_received>:
    3f9c:	4b06      	ldr	r3, [pc, #24]	; (3fb8 <usart_sharp_received+0x1c>)
    3f9e:	b510      	push	{r4, lr}
    3fa0:	4798      	blx	r3
    3fa2:	2300      	movs	r3, #0
    3fa4:	4298      	cmp	r0, r3
    3fa6:	d004      	beq.n	3fb2 <usart_sharp_received+0x16>
    3fa8:	4b04      	ldr	r3, [pc, #16]	; (3fbc <usart_sharp_received+0x20>)
    3faa:	4798      	blx	r3
    3fac:	3823      	subs	r0, #35	; 0x23
    3fae:	4243      	negs	r3, r0
    3fb0:	4143      	adcs	r3, r0
    3fb2:	0018      	movs	r0, r3
    3fb4:	bd10      	pop	{r4, pc}
    3fb6:	46c0      	nop			; (mov r8, r8)
    3fb8:	00003f65 	.word	0x00003f65
    3fbc:	00003f75 	.word	0x00003f75

00003fc0 <usart_putdata>:
    3fc0:	b570      	push	{r4, r5, r6, lr}
    3fc2:	000d      	movs	r5, r1
    3fc4:	0004      	movs	r4, r0
    3fc6:	1846      	adds	r6, r0, r1
    3fc8:	42b4      	cmp	r4, r6
    3fca:	d101      	bne.n	3fd0 <usart_putdata+0x10>
    3fcc:	0028      	movs	r0, r5
    3fce:	bd70      	pop	{r4, r5, r6, pc}
    3fd0:	7820      	ldrb	r0, [r4, #0]
    3fd2:	4b02      	ldr	r3, [pc, #8]	; (3fdc <usart_putdata+0x1c>)
    3fd4:	4798      	blx	r3
    3fd6:	3401      	adds	r4, #1
    3fd8:	e7f6      	b.n	3fc8 <usart_putdata+0x8>
    3fda:	46c0      	nop			; (mov r8, r8)
    3fdc:	00003f4d 	.word	0x00003f4d

00003fe0 <usart_getdata>:
    3fe0:	b510      	push	{r4, lr}
    3fe2:	4b03      	ldr	r3, [pc, #12]	; (3ff0 <usart_getdata+0x10>)
    3fe4:	0004      	movs	r4, r0
    3fe6:	4798      	blx	r3
    3fe8:	7020      	strb	r0, [r4, #0]
    3fea:	2001      	movs	r0, #1
    3fec:	bd10      	pop	{r4, pc}
    3fee:	46c0      	nop			; (mov r8, r8)
    3ff0:	00003f75 	.word	0x00003f75

00003ff4 <add_crc>:
    3ff4:	2308      	movs	r3, #8
    3ff6:	b510      	push	{r4, lr}
    3ff8:	0200      	lsls	r0, r0, #8
    3ffa:	4a07      	ldr	r2, [pc, #28]	; (4018 <add_crc+0x24>)
    3ffc:	4048      	eors	r0, r1
    3ffe:	b204      	sxth	r4, r0
    4000:	0041      	lsls	r1, r0, #1
    4002:	b288      	uxth	r0, r1
    4004:	2c00      	cmp	r4, #0
    4006:	da01      	bge.n	400c <add_crc+0x18>
    4008:	4051      	eors	r1, r2
    400a:	b288      	uxth	r0, r1
    400c:	3b01      	subs	r3, #1
    400e:	b29b      	uxth	r3, r3
    4010:	2b00      	cmp	r3, #0
    4012:	d1f4      	bne.n	3ffe <add_crc+0xa>
    4014:	bd10      	pop	{r4, pc}
    4016:	46c0      	nop			; (mov r8, r8)
    4018:	00001021 	.word	0x00001021

0000401c <getbytes>:
    401c:	b5f7      	push	{r0, r1, r2, r4, r5, r6, r7, lr}
    401e:	2400      	movs	r4, #0
    4020:	0006      	movs	r6, r0
    4022:	000f      	movs	r7, r1
    4024:	0025      	movs	r5, r4
    4026:	42bc      	cmp	r4, r7
    4028:	d101      	bne.n	402e <getbytes+0x12>
    402a:	0028      	movs	r0, r5
    402c:	bdfe      	pop	{r1, r2, r3, r4, r5, r6, r7, pc}
    402e:	4b12      	ldr	r3, [pc, #72]	; (4078 <getbytes+0x5c>)
    4030:	4798      	blx	r3
    4032:	b2c3      	uxtb	r3, r0
    4034:	9301      	str	r3, [sp, #4]
    4036:	4b11      	ldr	r3, [pc, #68]	; (407c <getbytes+0x60>)
    4038:	781b      	ldrb	r3, [r3, #0]
    403a:	2b00      	cmp	r3, #0
    403c:	d11a      	bne.n	4074 <getbytes+0x58>
    403e:	0029      	movs	r1, r5
    4040:	4b0f      	ldr	r3, [pc, #60]	; (4080 <getbytes+0x64>)
    4042:	9801      	ldr	r0, [sp, #4]
    4044:	4798      	blx	r3
    4046:	4b0f      	ldr	r3, [pc, #60]	; (4084 <getbytes+0x68>)
    4048:	0005      	movs	r5, r0
    404a:	881a      	ldrh	r2, [r3, #0]
    404c:	2a00      	cmp	r2, #0
    404e:	d104      	bne.n	405a <getbytes+0x3e>
    4050:	4a0d      	ldr	r2, [pc, #52]	; (4088 <getbytes+0x6c>)
    4052:	0031      	movs	r1, r6
    4054:	7812      	ldrb	r2, [r2, #0]
    4056:	2a00      	cmp	r2, #0
    4058:	d008      	beq.n	406c <getbytes+0x50>
    405a:	466a      	mov	r2, sp
    405c:	7912      	ldrb	r2, [r2, #4]
    405e:	1c71      	adds	r1, r6, #1
    4060:	7032      	strb	r2, [r6, #0]
    4062:	2f80      	cmp	r7, #128	; 0x80
    4064:	d102      	bne.n	406c <getbytes+0x50>
    4066:	881a      	ldrh	r2, [r3, #0]
    4068:	3a01      	subs	r2, #1
    406a:	801a      	strh	r2, [r3, #0]
    406c:	3401      	adds	r4, #1
    406e:	b2a4      	uxth	r4, r4
    4070:	000e      	movs	r6, r1
    4072:	e7d8      	b.n	4026 <getbytes+0xa>
    4074:	2501      	movs	r5, #1
    4076:	e7d8      	b.n	402a <getbytes+0xe>
    4078:	00003f75 	.word	0x00003f75
    407c:	20000c58 	.word	0x20000c58
    4080:	00003ff5 	.word	0x00003ff5
    4084:	20000b9e 	.word	0x20000b9e
    4088:	20000c59 	.word	0x20000c59

0000408c <getPacket>:
    408c:	b5f0      	push	{r4, r5, r6, r7, lr}
    408e:	0006      	movs	r6, r0
    4090:	b087      	sub	sp, #28
    4092:	ad05      	add	r5, sp, #20
    4094:	4c18      	ldr	r4, [pc, #96]	; (40f8 <getPacket+0x6c>)
    4096:	9102      	str	r1, [sp, #8]
    4098:	0028      	movs	r0, r5
    409a:	2102      	movs	r1, #2
    409c:	47a0      	blx	r4
    409e:	0030      	movs	r0, r6
    40a0:	2180      	movs	r1, #128	; 0x80
    40a2:	47a0      	blx	r4
    40a4:	4e15      	ldr	r6, [pc, #84]	; (40fc <getPacket+0x70>)
    40a6:	9003      	str	r0, [sp, #12]
    40a8:	7834      	ldrb	r4, [r6, #0]
    40aa:	2c00      	cmp	r4, #0
    40ac:	d003      	beq.n	40b6 <getPacket+0x2a>
    40ae:	2400      	movs	r4, #0
    40b0:	0020      	movs	r0, r4
    40b2:	b007      	add	sp, #28
    40b4:	bdf0      	pop	{r4, r5, r6, r7, pc}
    40b6:	4f12      	ldr	r7, [pc, #72]	; (4100 <getPacket+0x74>)
    40b8:	47b8      	blx	r7
    40ba:	0200      	lsls	r0, r0, #8
    40bc:	b283      	uxth	r3, r0
    40be:	9301      	str	r3, [sp, #4]
    40c0:	47b8      	blx	r7
    40c2:	9b01      	ldr	r3, [sp, #4]
    40c4:	1818      	adds	r0, r3, r0
    40c6:	7833      	ldrb	r3, [r6, #0]
    40c8:	b280      	uxth	r0, r0
    40ca:	2b01      	cmp	r3, #1
    40cc:	d0ef      	beq.n	40ae <getPacket+0x22>
    40ce:	9b03      	ldr	r3, [sp, #12]
    40d0:	4a0c      	ldr	r2, [pc, #48]	; (4104 <getPacket+0x78>)
    40d2:	4283      	cmp	r3, r0
    40d4:	d108      	bne.n	40e8 <getPacket+0x5c>
    40d6:	782b      	ldrb	r3, [r5, #0]
    40d8:	9902      	ldr	r1, [sp, #8]
    40da:	428b      	cmp	r3, r1
    40dc:	d104      	bne.n	40e8 <getPacket+0x5c>
    40de:	43db      	mvns	r3, r3
    40e0:	7869      	ldrb	r1, [r5, #1]
    40e2:	b2db      	uxtb	r3, r3
    40e4:	4299      	cmp	r1, r3
    40e6:	d002      	beq.n	40ee <getPacket+0x62>
    40e8:	2018      	movs	r0, #24
    40ea:	4790      	blx	r2
    40ec:	e7e0      	b.n	40b0 <getPacket+0x24>
    40ee:	2006      	movs	r0, #6
    40f0:	4790      	blx	r2
    40f2:	2401      	movs	r4, #1
    40f4:	e7dc      	b.n	40b0 <getPacket+0x24>
    40f6:	46c0      	nop			; (mov r8, r8)
    40f8:	0000401d 	.word	0x0000401d
    40fc:	20000c58 	.word	0x20000c58
    4100:	00003f75 	.word	0x00003f75
    4104:	00003f4d 	.word	0x00003f4d

00004108 <usart_putdata_xmd>:
    4108:	2200      	movs	r2, #0
    410a:	b5f0      	push	{r4, r5, r6, r7, lr}
    410c:	4d3c      	ldr	r5, [pc, #240]	; (4200 <usart_putdata_xmd+0xf8>)
    410e:	b085      	sub	sp, #20
    4110:	0007      	movs	r7, r0
    4112:	000c      	movs	r4, r1
    4114:	702a      	strb	r2, [r5, #0]
    4116:	4b3b      	ldr	r3, [pc, #236]	; (4204 <usart_putdata_xmd+0xfc>)
    4118:	4291      	cmp	r1, r2
    411a:	d118      	bne.n	414e <usart_putdata_xmd+0x46>
    411c:	3201      	adds	r2, #1
    411e:	701a      	strb	r2, [r3, #0]
    4120:	237f      	movs	r3, #127	; 0x7f
    4122:	421c      	tst	r4, r3
    4124:	d001      	beq.n	412a <usart_putdata_xmd+0x22>
    4126:	3480      	adds	r4, #128	; 0x80
    4128:	439c      	bics	r4, r3
    412a:	4e37      	ldr	r6, [pc, #220]	; (4208 <usart_putdata_xmd+0x100>)
    412c:	47b0      	blx	r6
    412e:	782b      	ldrb	r3, [r5, #0]
    4130:	b2c0      	uxtb	r0, r0
    4132:	2b00      	cmp	r3, #0
    4134:	d010      	beq.n	4158 <usart_putdata_xmd+0x50>
    4136:	2300      	movs	r3, #0
    4138:	702b      	strb	r3, [r5, #0]
    413a:	47b0      	blx	r6
    413c:	782b      	ldrb	r3, [r5, #0]
    413e:	b2c0      	uxtb	r0, r0
    4140:	2b00      	cmp	r3, #0
    4142:	d009      	beq.n	4158 <usart_putdata_xmd+0x50>
    4144:	2000      	movs	r0, #0
    4146:	4b2e      	ldr	r3, [pc, #184]	; (4200 <usart_putdata_xmd+0xf8>)
    4148:	7018      	strb	r0, [r3, #0]
    414a:	b005      	add	sp, #20
    414c:	bdf0      	pop	{r4, r5, r6, r7, pc}
    414e:	492f      	ldr	r1, [pc, #188]	; (420c <usart_putdata_xmd+0x104>)
    4150:	800c      	strh	r4, [r1, #0]
    4152:	e7e4      	b.n	411e <usart_putdata_xmd+0x16>
    4154:	2000      	movs	r0, #0
    4156:	e7f8      	b.n	414a <usart_putdata_xmd+0x42>
    4158:	2843      	cmp	r0, #67	; 0x43
    415a:	d003      	beq.n	4164 <usart_putdata_xmd+0x5c>
    415c:	2871      	cmp	r0, #113	; 0x71
    415e:	d0f9      	beq.n	4154 <usart_putdata_xmd+0x4c>
    4160:	2815      	cmp	r0, #21
    4162:	d1e2      	bne.n	412a <usart_putdata_xmd+0x22>
    4164:	2301      	movs	r3, #1
    4166:	9701      	str	r7, [sp, #4]
    4168:	9300      	str	r3, [sp, #0]
    416a:	4d29      	ldr	r5, [pc, #164]	; (4210 <usart_putdata_xmd+0x108>)
    416c:	2001      	movs	r0, #1
    416e:	47a8      	blx	r5
    4170:	9800      	ldr	r0, [sp, #0]
    4172:	47a8      	blx	r5
    4174:	9b00      	ldr	r3, [sp, #0]
    4176:	43d8      	mvns	r0, r3
    4178:	b2c0      	uxtb	r0, r0
    417a:	47a8      	blx	r5
    417c:	9b01      	ldr	r3, [sp, #4]
    417e:	2500      	movs	r5, #0
    4180:	9303      	str	r3, [sp, #12]
    4182:	2380      	movs	r3, #128	; 0x80
    4184:	9302      	str	r3, [sp, #8]
    4186:	4a21      	ldr	r2, [pc, #132]	; (420c <usart_putdata_xmd+0x104>)
    4188:	8813      	ldrh	r3, [r2, #0]
    418a:	2b00      	cmp	r3, #0
    418c:	d103      	bne.n	4196 <usart_putdata_xmd+0x8e>
    418e:	491d      	ldr	r1, [pc, #116]	; (4204 <usart_putdata_xmd+0xfc>)
    4190:	780f      	ldrb	r7, [r1, #0]
    4192:	2f00      	cmp	r7, #0
    4194:	d006      	beq.n	41a4 <usart_putdata_xmd+0x9c>
    4196:	9903      	ldr	r1, [sp, #12]
    4198:	3b01      	subs	r3, #1
    419a:	780f      	ldrb	r7, [r1, #0]
    419c:	8013      	strh	r3, [r2, #0]
    419e:	000b      	movs	r3, r1
    41a0:	3301      	adds	r3, #1
    41a2:	9303      	str	r3, [sp, #12]
    41a4:	0038      	movs	r0, r7
    41a6:	4e1a      	ldr	r6, [pc, #104]	; (4210 <usart_putdata_xmd+0x108>)
    41a8:	47b0      	blx	r6
    41aa:	0029      	movs	r1, r5
    41ac:	4b19      	ldr	r3, [pc, #100]	; (4214 <usart_putdata_xmd+0x10c>)
    41ae:	0038      	movs	r0, r7
    41b0:	4798      	blx	r3
    41b2:	9b02      	ldr	r3, [sp, #8]
    41b4:	0005      	movs	r5, r0
    41b6:	3b01      	subs	r3, #1
    41b8:	9302      	str	r3, [sp, #8]
    41ba:	2b00      	cmp	r3, #0
    41bc:	d1e3      	bne.n	4186 <usart_putdata_xmd+0x7e>
    41be:	0a00      	lsrs	r0, r0, #8
    41c0:	b280      	uxth	r0, r0
    41c2:	47b0      	blx	r6
    41c4:	b2e8      	uxtb	r0, r5
    41c6:	47b0      	blx	r6
    41c8:	4d0f      	ldr	r5, [pc, #60]	; (4208 <usart_putdata_xmd+0x100>)
    41ca:	47a8      	blx	r5
    41cc:	4b0c      	ldr	r3, [pc, #48]	; (4200 <usart_putdata_xmd+0xf8>)
    41ce:	781b      	ldrb	r3, [r3, #0]
    41d0:	2b00      	cmp	r3, #0
    41d2:	d1b7      	bne.n	4144 <usart_putdata_xmd+0x3c>
    41d4:	23ff      	movs	r3, #255	; 0xff
    41d6:	4018      	ands	r0, r3
    41d8:	2806      	cmp	r0, #6
    41da:	d107      	bne.n	41ec <usart_putdata_xmd+0xe4>
    41dc:	9b00      	ldr	r3, [sp, #0]
    41de:	3c80      	subs	r4, #128	; 0x80
    41e0:	3301      	adds	r3, #1
    41e2:	b2db      	uxtb	r3, r3
    41e4:	9300      	str	r3, [sp, #0]
    41e6:	9b01      	ldr	r3, [sp, #4]
    41e8:	3380      	adds	r3, #128	; 0x80
    41ea:	9301      	str	r3, [sp, #4]
    41ec:	2c00      	cmp	r4, #0
    41ee:	d1bc      	bne.n	416a <usart_putdata_xmd+0x62>
    41f0:	2004      	movs	r0, #4
    41f2:	47b0      	blx	r6
    41f4:	47a8      	blx	r5
    41f6:	4b03      	ldr	r3, [pc, #12]	; (4204 <usart_putdata_xmd+0xfc>)
    41f8:	2001      	movs	r0, #1
    41fa:	701c      	strb	r4, [r3, #0]
    41fc:	e7a5      	b.n	414a <usart_putdata_xmd+0x42>
    41fe:	46c0      	nop			; (mov r8, r8)
    4200:	20000c58 	.word	0x20000c58
    4204:	20000c59 	.word	0x20000c59
    4208:	00003f75 	.word	0x00003f75
    420c:	20000b9e 	.word	0x20000b9e
    4210:	00003f4d 	.word	0x00003f4d
    4214:	00003ff5 	.word	0x00003ff5

00004218 <usart_getdata_xmd>:
    4218:	b5f7      	push	{r0, r1, r2, r4, r5, r6, r7, lr}
    421a:	4b28      	ldr	r3, [pc, #160]	; (42bc <usart_getdata_xmd+0xa4>)
    421c:	0005      	movs	r5, r0
    421e:	2006      	movs	r0, #6
    4220:	000c      	movs	r4, r1
    4222:	4798      	blx	r3
    4224:	4b26      	ldr	r3, [pc, #152]	; (42c0 <usart_getdata_xmd+0xa8>)
    4226:	210a      	movs	r1, #10
    4228:	4798      	blx	r3
    422a:	2300      	movs	r3, #0
    422c:	4f25      	ldr	r7, [pc, #148]	; (42c4 <usart_getdata_xmd+0xac>)
    422e:	9001      	str	r0, [sp, #4]
    4230:	703b      	strb	r3, [r7, #0]
    4232:	429c      	cmp	r4, r3
    4234:	d112      	bne.n	425c <usart_getdata_xmd+0x44>
    4236:	3301      	adds	r3, #1
    4238:	2464      	movs	r4, #100	; 0x64
    423a:	4a23      	ldr	r2, [pc, #140]	; (42c8 <usart_getdata_xmd+0xb0>)
    423c:	7013      	strb	r3, [r2, #0]
    423e:	2043      	movs	r0, #67	; 0x43
    4240:	4b22      	ldr	r3, [pc, #136]	; (42cc <usart_getdata_xmd+0xb4>)
    4242:	4798      	blx	r3
    4244:	9e01      	ldr	r6, [sp, #4]
    4246:	4b22      	ldr	r3, [pc, #136]	; (42d0 <usart_getdata_xmd+0xb8>)
    4248:	4798      	blx	r3
    424a:	2800      	cmp	r0, #0
    424c:	d10b      	bne.n	4266 <usart_getdata_xmd+0x4e>
    424e:	2e00      	cmp	r6, #0
    4250:	d107      	bne.n	4262 <usart_getdata_xmd+0x4a>
    4252:	3c01      	subs	r4, #1
    4254:	2c00      	cmp	r4, #0
    4256:	d1f2      	bne.n	423e <usart_getdata_xmd+0x26>
    4258:	0020      	movs	r0, r4
    425a:	e029      	b.n	42b0 <usart_getdata_xmd+0x98>
    425c:	4a1d      	ldr	r2, [pc, #116]	; (42d4 <usart_getdata_xmd+0xbc>)
    425e:	8014      	strh	r4, [r2, #0]
    4260:	e7ea      	b.n	4238 <usart_getdata_xmd+0x20>
    4262:	3e01      	subs	r6, #1
    4264:	e7ef      	b.n	4246 <usart_getdata_xmd+0x2e>
    4266:	2e00      	cmp	r6, #0
    4268:	d0f3      	beq.n	4252 <usart_getdata_xmd+0x3a>
    426a:	2601      	movs	r6, #1
    426c:	0034      	movs	r4, r6
    426e:	2c00      	cmp	r4, #0
    4270:	d117      	bne.n	42a2 <usart_getdata_xmd+0x8a>
    4272:	e005      	b.n	4280 <usart_getdata_xmd+0x68>
    4274:	23ff      	movs	r3, #255	; 0xff
    4276:	4018      	ands	r0, r3
    4278:	2801      	cmp	r0, #1
    427a:	d005      	beq.n	4288 <usart_getdata_xmd+0x70>
    427c:	2804      	cmp	r0, #4
    427e:	d018      	beq.n	42b2 <usart_getdata_xmd+0x9a>
    4280:	4b11      	ldr	r3, [pc, #68]	; (42c8 <usart_getdata_xmd+0xb0>)
    4282:	2001      	movs	r0, #1
    4284:	701c      	strb	r4, [r3, #0]
    4286:	e013      	b.n	42b0 <usart_getdata_xmd+0x98>
    4288:	4b13      	ldr	r3, [pc, #76]	; (42d8 <usart_getdata_xmd+0xc0>)
    428a:	0031      	movs	r1, r6
    428c:	0028      	movs	r0, r5
    428e:	4798      	blx	r3
    4290:	783b      	ldrb	r3, [r7, #0]
    4292:	0004      	movs	r4, r0
    4294:	2b00      	cmp	r3, #0
    4296:	d109      	bne.n	42ac <usart_getdata_xmd+0x94>
    4298:	2801      	cmp	r0, #1
    429a:	d1e8      	bne.n	426e <usart_getdata_xmd+0x56>
    429c:	3601      	adds	r6, #1
    429e:	b2f6      	uxtb	r6, r6
    42a0:	3580      	adds	r5, #128	; 0x80
    42a2:	4b0e      	ldr	r3, [pc, #56]	; (42dc <usart_getdata_xmd+0xc4>)
    42a4:	4798      	blx	r3
    42a6:	783c      	ldrb	r4, [r7, #0]
    42a8:	2c00      	cmp	r4, #0
    42aa:	d0e3      	beq.n	4274 <usart_getdata_xmd+0x5c>
    42ac:	2000      	movs	r0, #0
    42ae:	7038      	strb	r0, [r7, #0]
    42b0:	bdfe      	pop	{r1, r2, r3, r4, r5, r6, r7, pc}
    42b2:	4b06      	ldr	r3, [pc, #24]	; (42cc <usart_getdata_xmd+0xb4>)
    42b4:	2006      	movs	r0, #6
    42b6:	4798      	blx	r3
    42b8:	e7e2      	b.n	4280 <usart_getdata_xmd+0x68>
    42ba:	46c0      	nop			; (mov r8, r8)
    42bc:	0000193d 	.word	0x0000193d
    42c0:	00004309 	.word	0x00004309
    42c4:	20000c58 	.word	0x20000c58
    42c8:	20000c59 	.word	0x20000c59
    42cc:	00003f4d 	.word	0x00003f4d
    42d0:	00003f65 	.word	0x00003f65
    42d4:	20000b9e 	.word	0x20000b9e
    42d8:	0000408d 	.word	0x0000408d
    42dc:	00003f75 	.word	0x00003f75

000042e0 <__gnu_thumb1_case_uqi>:
    42e0:	b402      	push	{r1}
    42e2:	4671      	mov	r1, lr
    42e4:	0849      	lsrs	r1, r1, #1
    42e6:	0049      	lsls	r1, r1, #1
    42e8:	5c09      	ldrb	r1, [r1, r0]
    42ea:	0049      	lsls	r1, r1, #1
    42ec:	448e      	add	lr, r1
    42ee:	bc02      	pop	{r1}
    42f0:	4770      	bx	lr
    42f2:	46c0      	nop			; (mov r8, r8)

000042f4 <__gnu_thumb1_case_shi>:
    42f4:	b403      	push	{r0, r1}
    42f6:	4671      	mov	r1, lr
    42f8:	0849      	lsrs	r1, r1, #1
    42fa:	0040      	lsls	r0, r0, #1
    42fc:	0049      	lsls	r1, r1, #1
    42fe:	5e09      	ldrsh	r1, [r1, r0]
    4300:	0049      	lsls	r1, r1, #1
    4302:	448e      	add	lr, r1
    4304:	bc03      	pop	{r0, r1}
    4306:	4770      	bx	lr

00004308 <__udivsi3>:
    4308:	2200      	movs	r2, #0
    430a:	0843      	lsrs	r3, r0, #1
    430c:	428b      	cmp	r3, r1
    430e:	d374      	bcc.n	43fa <__udivsi3+0xf2>
    4310:	0903      	lsrs	r3, r0, #4
    4312:	428b      	cmp	r3, r1
    4314:	d35f      	bcc.n	43d6 <__udivsi3+0xce>
    4316:	0a03      	lsrs	r3, r0, #8
    4318:	428b      	cmp	r3, r1
    431a:	d344      	bcc.n	43a6 <__udivsi3+0x9e>
    431c:	0b03      	lsrs	r3, r0, #12
    431e:	428b      	cmp	r3, r1
    4320:	d328      	bcc.n	4374 <__udivsi3+0x6c>
    4322:	0c03      	lsrs	r3, r0, #16
    4324:	428b      	cmp	r3, r1
    4326:	d30d      	bcc.n	4344 <__udivsi3+0x3c>
    4328:	22ff      	movs	r2, #255	; 0xff
    432a:	0209      	lsls	r1, r1, #8
    432c:	ba12      	rev	r2, r2
    432e:	0c03      	lsrs	r3, r0, #16
    4330:	428b      	cmp	r3, r1
    4332:	d302      	bcc.n	433a <__udivsi3+0x32>
    4334:	1212      	asrs	r2, r2, #8
    4336:	0209      	lsls	r1, r1, #8
    4338:	d065      	beq.n	4406 <__udivsi3+0xfe>
    433a:	0b03      	lsrs	r3, r0, #12
    433c:	428b      	cmp	r3, r1
    433e:	d319      	bcc.n	4374 <__udivsi3+0x6c>
    4340:	e000      	b.n	4344 <__udivsi3+0x3c>
    4342:	0a09      	lsrs	r1, r1, #8
    4344:	0bc3      	lsrs	r3, r0, #15
    4346:	428b      	cmp	r3, r1
    4348:	d301      	bcc.n	434e <__udivsi3+0x46>
    434a:	03cb      	lsls	r3, r1, #15
    434c:	1ac0      	subs	r0, r0, r3
    434e:	4152      	adcs	r2, r2
    4350:	0b83      	lsrs	r3, r0, #14
    4352:	428b      	cmp	r3, r1
    4354:	d301      	bcc.n	435a <__udivsi3+0x52>
    4356:	038b      	lsls	r3, r1, #14
    4358:	1ac0      	subs	r0, r0, r3
    435a:	4152      	adcs	r2, r2
    435c:	0b43      	lsrs	r3, r0, #13
    435e:	428b      	cmp	r3, r1
    4360:	d301      	bcc.n	4366 <__udivsi3+0x5e>
    4362:	034b      	lsls	r3, r1, #13
    4364:	1ac0      	subs	r0, r0, r3
    4366:	4152      	adcs	r2, r2
    4368:	0b03      	lsrs	r3, r0, #12
    436a:	428b      	cmp	r3, r1
    436c:	d301      	bcc.n	4372 <__udivsi3+0x6a>
    436e:	030b      	lsls	r3, r1, #12
    4370:	1ac0      	subs	r0, r0, r3
    4372:	4152      	adcs	r2, r2
    4374:	0ac3      	lsrs	r3, r0, #11
    4376:	428b      	cmp	r3, r1
    4378:	d301      	bcc.n	437e <__udivsi3+0x76>
    437a:	02cb      	lsls	r3, r1, #11
    437c:	1ac0      	subs	r0, r0, r3
    437e:	4152      	adcs	r2, r2
    4380:	0a83      	lsrs	r3, r0, #10
    4382:	428b      	cmp	r3, r1
    4384:	d301      	bcc.n	438a <__udivsi3+0x82>
    4386:	028b      	lsls	r3, r1, #10
    4388:	1ac0      	subs	r0, r0, r3
    438a:	4152      	adcs	r2, r2
    438c:	0a43      	lsrs	r3, r0, #9
    438e:	428b      	cmp	r3, r1
    4390:	d301      	bcc.n	4396 <__udivsi3+0x8e>
    4392:	024b      	lsls	r3, r1, #9
    4394:	1ac0      	subs	r0, r0, r3
    4396:	4152      	adcs	r2, r2
    4398:	0a03      	lsrs	r3, r0, #8
    439a:	428b      	cmp	r3, r1
    439c:	d301      	bcc.n	43a2 <__udivsi3+0x9a>
    439e:	020b      	lsls	r3, r1, #8
    43a0:	1ac0      	subs	r0, r0, r3
    43a2:	4152      	adcs	r2, r2
    43a4:	d2cd      	bcs.n	4342 <__udivsi3+0x3a>
    43a6:	09c3      	lsrs	r3, r0, #7
    43a8:	428b      	cmp	r3, r1
    43aa:	d301      	bcc.n	43b0 <__udivsi3+0xa8>
    43ac:	01cb      	lsls	r3, r1, #7
    43ae:	1ac0      	subs	r0, r0, r3
    43b0:	4152      	adcs	r2, r2
    43b2:	0983      	lsrs	r3, r0, #6
    43b4:	428b      	cmp	r3, r1
    43b6:	d301      	bcc.n	43bc <__udivsi3+0xb4>
    43b8:	018b      	lsls	r3, r1, #6
    43ba:	1ac0      	subs	r0, r0, r3
    43bc:	4152      	adcs	r2, r2
    43be:	0943      	lsrs	r3, r0, #5
    43c0:	428b      	cmp	r3, r1
    43c2:	d301      	bcc.n	43c8 <__udivsi3+0xc0>
    43c4:	014b      	lsls	r3, r1, #5
    43c6:	1ac0      	subs	r0, r0, r3
    43c8:	4152      	adcs	r2, r2
    43ca:	0903      	lsrs	r3, r0, #4
    43cc:	428b      	cmp	r3, r1
    43ce:	d301      	bcc.n	43d4 <__udivsi3+0xcc>
    43d0:	010b      	lsls	r3, r1, #4
    43d2:	1ac0      	subs	r0, r0, r3
    43d4:	4152      	adcs	r2, r2
    43d6:	08c3      	lsrs	r3, r0, #3
    43d8:	428b      	cmp	r3, r1
    43da:	d301      	bcc.n	43e0 <__udivsi3+0xd8>
    43dc:	00cb      	lsls	r3, r1, #3
    43de:	1ac0      	subs	r0, r0, r3
    43e0:	4152      	adcs	r2, r2
    43e2:	0883      	lsrs	r3, r0, #2
    43e4:	428b      	cmp	r3, r1
    43e6:	d301      	bcc.n	43ec <__udivsi3+0xe4>
    43e8:	008b      	lsls	r3, r1, #2
    43ea:	1ac0      	subs	r0, r0, r3
    43ec:	4152      	adcs	r2, r2
    43ee:	0843      	lsrs	r3, r0, #1
    43f0:	428b      	cmp	r3, r1
    43f2:	d301      	bcc.n	43f8 <__udivsi3+0xf0>
    43f4:	004b      	lsls	r3, r1, #1
    43f6:	1ac0      	subs	r0, r0, r3
    43f8:	4152      	adcs	r2, r2
    43fa:	1a41      	subs	r1, r0, r1
    43fc:	d200      	bcs.n	4400 <__udivsi3+0xf8>
    43fe:	4601      	mov	r1, r0
    4400:	4152      	adcs	r2, r2
    4402:	4610      	mov	r0, r2
    4404:	4770      	bx	lr
    4406:	e7ff      	b.n	4408 <__udivsi3+0x100>
    4408:	b501      	push	{r0, lr}
    440a:	2000      	movs	r0, #0
    440c:	f000 f8f0 	bl	45f0 <__aeabi_idiv0>
    4410:	bd02      	pop	{r1, pc}
    4412:	46c0      	nop			; (mov r8, r8)

00004414 <__aeabi_uidivmod>:
    4414:	2900      	cmp	r1, #0
    4416:	d0f7      	beq.n	4408 <__udivsi3+0x100>
    4418:	e776      	b.n	4308 <__udivsi3>
    441a:	4770      	bx	lr

0000441c <__divsi3>:
    441c:	4603      	mov	r3, r0
    441e:	430b      	orrs	r3, r1
    4420:	d47f      	bmi.n	4522 <__divsi3+0x106>
    4422:	2200      	movs	r2, #0
    4424:	0843      	lsrs	r3, r0, #1
    4426:	428b      	cmp	r3, r1
    4428:	d374      	bcc.n	4514 <__divsi3+0xf8>
    442a:	0903      	lsrs	r3, r0, #4
    442c:	428b      	cmp	r3, r1
    442e:	d35f      	bcc.n	44f0 <__divsi3+0xd4>
    4430:	0a03      	lsrs	r3, r0, #8
    4432:	428b      	cmp	r3, r1
    4434:	d344      	bcc.n	44c0 <__divsi3+0xa4>
    4436:	0b03      	lsrs	r3, r0, #12
    4438:	428b      	cmp	r3, r1
    443a:	d328      	bcc.n	448e <__divsi3+0x72>
    443c:	0c03      	lsrs	r3, r0, #16
    443e:	428b      	cmp	r3, r1
    4440:	d30d      	bcc.n	445e <__divsi3+0x42>
    4442:	22ff      	movs	r2, #255	; 0xff
    4444:	0209      	lsls	r1, r1, #8
    4446:	ba12      	rev	r2, r2
    4448:	0c03      	lsrs	r3, r0, #16
    444a:	428b      	cmp	r3, r1
    444c:	d302      	bcc.n	4454 <__divsi3+0x38>
    444e:	1212      	asrs	r2, r2, #8
    4450:	0209      	lsls	r1, r1, #8
    4452:	d065      	beq.n	4520 <__divsi3+0x104>
    4454:	0b03      	lsrs	r3, r0, #12
    4456:	428b      	cmp	r3, r1
    4458:	d319      	bcc.n	448e <__divsi3+0x72>
    445a:	e000      	b.n	445e <__divsi3+0x42>
    445c:	0a09      	lsrs	r1, r1, #8
    445e:	0bc3      	lsrs	r3, r0, #15
    4460:	428b      	cmp	r3, r1
    4462:	d301      	bcc.n	4468 <__divsi3+0x4c>
    4464:	03cb      	lsls	r3, r1, #15
    4466:	1ac0      	subs	r0, r0, r3
    4468:	4152      	adcs	r2, r2
    446a:	0b83      	lsrs	r3, r0, #14
    446c:	428b      	cmp	r3, r1
    446e:	d301      	bcc.n	4474 <__divsi3+0x58>
    4470:	038b      	lsls	r3, r1, #14
    4472:	1ac0      	subs	r0, r0, r3
    4474:	4152      	adcs	r2, r2
    4476:	0b43      	lsrs	r3, r0, #13
    4478:	428b      	cmp	r3, r1
    447a:	d301      	bcc.n	4480 <__divsi3+0x64>
    447c:	034b      	lsls	r3, r1, #13
    447e:	1ac0      	subs	r0, r0, r3
    4480:	4152      	adcs	r2, r2
    4482:	0b03      	lsrs	r3, r0, #12
    4484:	428b      	cmp	r3, r1
    4486:	d301      	bcc.n	448c <__divsi3+0x70>
    4488:	030b      	lsls	r3, r1, #12
    448a:	1ac0      	subs	r0, r0, r3
    448c:	4152      	adcs	r2, r2
    448e:	0ac3      	lsrs	r3, r0, #11
    4490:	428b      	cmp	r3, r1
    4492:	d301      	bcc.n	4498 <__divsi3+0x7c>
    4494:	02cb      	lsls	r3, r1, #11
    4496:	1ac0      	subs	r0, r0, r3
    4498:	4152      	adcs	r2, r2
    449a:	0a83      	lsrs	r3, r0, #10
    449c:	428b      	cmp	r3, r1
    449e:	d301      	bcc.n	44a4 <__divsi3+0x88>
    44a0:	028b      	lsls	r3, r1, #10
    44a2:	1ac0      	subs	r0, r0, r3
    44a4:	4152      	adcs	r2, r2
    44a6:	0a43      	lsrs	r3, r0, #9
    44a8:	428b      	cmp	r3, r1
    44aa:	d301      	bcc.n	44b0 <__divsi3+0x94>
    44ac:	024b      	lsls	r3, r1, #9
    44ae:	1ac0      	subs	r0, r0, r3
    44b0:	4152      	adcs	r2, r2
    44b2:	0a03      	lsrs	r3, r0, #8
    44b4:	428b      	cmp	r3, r1
    44b6:	d301      	bcc.n	44bc <__divsi3+0xa0>
    44b8:	020b      	lsls	r3, r1, #8
    44ba:	1ac0      	subs	r0, r0, r3
    44bc:	4152      	adcs	r2, r2
    44be:	d2cd      	bcs.n	445c <__divsi3+0x40>
    44c0:	09c3      	lsrs	r3, r0, #7
    44c2:	428b      	cmp	r3, r1
    44c4:	d301      	bcc.n	44ca <__divsi3+0xae>
    44c6:	01cb      	lsls	r3, r1, #7
    44c8:	1ac0      	subs	r0, r0, r3
    44ca:	4152      	adcs	r2, r2
    44cc:	0983      	lsrs	r3, r0, #6
    44ce:	428b      	cmp	r3, r1
    44d0:	d301      	bcc.n	44d6 <__divsi3+0xba>
    44d2:	018b      	lsls	r3, r1, #6
    44d4:	1ac0      	subs	r0, r0, r3
    44d6:	4152      	adcs	r2, r2
    44d8:	0943      	lsrs	r3, r0, #5
    44da:	428b      	cmp	r3, r1
    44dc:	d301      	bcc.n	44e2 <__divsi3+0xc6>
    44de:	014b      	lsls	r3, r1, #5
    44e0:	1ac0      	subs	r0, r0, r3
    44e2:	4152      	adcs	r2, r2
    44e4:	0903      	lsrs	r3, r0, #4
    44e6:	428b      	cmp	r3, r1
    44e8:	d301      	bcc.n	44ee <__divsi3+0xd2>
    44ea:	010b      	lsls	r3, r1, #4
    44ec:	1ac0      	subs	r0, r0, r3
    44ee:	4152      	adcs	r2, r2
    44f0:	08c3      	lsrs	r3, r0, #3
    44f2:	428b      	cmp	r3, r1
    44f4:	d301      	bcc.n	44fa <__divsi3+0xde>
    44f6:	00cb      	lsls	r3, r1, #3
    44f8:	1ac0      	subs	r0, r0, r3
    44fa:	4152      	adcs	r2, r2
    44fc:	0883      	lsrs	r3, r0, #2
    44fe:	428b      	cmp	r3, r1
    4500:	d301      	bcc.n	4506 <__divsi3+0xea>
    4502:	008b      	lsls	r3, r1, #2
    4504:	1ac0      	subs	r0, r0, r3
    4506:	4152      	adcs	r2, r2
    4508:	0843      	lsrs	r3, r0, #1
    450a:	428b      	cmp	r3, r1
    450c:	d301      	bcc.n	4512 <__divsi3+0xf6>
    450e:	004b      	lsls	r3, r1, #1
    4510:	1ac0      	subs	r0, r0, r3
    4512:	4152      	adcs	r2, r2
    4514:	1a41      	subs	r1, r0, r1
    4516:	d200      	bcs.n	451a <__divsi3+0xfe>
    4518:	4601      	mov	r1, r0
    451a:	4152      	adcs	r2, r2
    451c:	4610      	mov	r0, r2
    451e:	4770      	bx	lr
    4520:	e05d      	b.n	45de <__divsi3+0x1c2>
    4522:	0fca      	lsrs	r2, r1, #31
    4524:	d000      	beq.n	4528 <__divsi3+0x10c>
    4526:	4249      	negs	r1, r1
    4528:	1003      	asrs	r3, r0, #32
    452a:	d300      	bcc.n	452e <__divsi3+0x112>
    452c:	4240      	negs	r0, r0
    452e:	4053      	eors	r3, r2
    4530:	2200      	movs	r2, #0
    4532:	469c      	mov	ip, r3
    4534:	0903      	lsrs	r3, r0, #4
    4536:	428b      	cmp	r3, r1
    4538:	d32d      	bcc.n	4596 <__divsi3+0x17a>
    453a:	0a03      	lsrs	r3, r0, #8
    453c:	428b      	cmp	r3, r1
    453e:	d312      	bcc.n	4566 <__divsi3+0x14a>
    4540:	22fc      	movs	r2, #252	; 0xfc
    4542:	0189      	lsls	r1, r1, #6
    4544:	ba12      	rev	r2, r2
    4546:	0a03      	lsrs	r3, r0, #8
    4548:	428b      	cmp	r3, r1
    454a:	d30c      	bcc.n	4566 <__divsi3+0x14a>
    454c:	0189      	lsls	r1, r1, #6
    454e:	1192      	asrs	r2, r2, #6
    4550:	428b      	cmp	r3, r1
    4552:	d308      	bcc.n	4566 <__divsi3+0x14a>
    4554:	0189      	lsls	r1, r1, #6
    4556:	1192      	asrs	r2, r2, #6
    4558:	428b      	cmp	r3, r1
    455a:	d304      	bcc.n	4566 <__divsi3+0x14a>
    455c:	0189      	lsls	r1, r1, #6
    455e:	d03a      	beq.n	45d6 <__divsi3+0x1ba>
    4560:	1192      	asrs	r2, r2, #6
    4562:	e000      	b.n	4566 <__divsi3+0x14a>
    4564:	0989      	lsrs	r1, r1, #6
    4566:	09c3      	lsrs	r3, r0, #7
    4568:	428b      	cmp	r3, r1
    456a:	d301      	bcc.n	4570 <__divsi3+0x154>
    456c:	01cb      	lsls	r3, r1, #7
    456e:	1ac0      	subs	r0, r0, r3
    4570:	4152      	adcs	r2, r2
    4572:	0983      	lsrs	r3, r0, #6
    4574:	428b      	cmp	r3, r1
    4576:	d301      	bcc.n	457c <__divsi3+0x160>
    4578:	018b      	lsls	r3, r1, #6
    457a:	1ac0      	subs	r0, r0, r3
    457c:	4152      	adcs	r2, r2
    457e:	0943      	lsrs	r3, r0, #5
    4580:	428b      	cmp	r3, r1
    4582:	d301      	bcc.n	4588 <__divsi3+0x16c>
    4584:	014b      	lsls	r3, r1, #5
    4586:	1ac0      	subs	r0, r0, r3
    4588:	4152      	adcs	r2, r2
    458a:	0903      	lsrs	r3, r0, #4
    458c:	428b      	cmp	r3, r1
    458e:	d301      	bcc.n	4594 <__divsi3+0x178>
    4590:	010b      	lsls	r3, r1, #4
    4592:	1ac0      	subs	r0, r0, r3
    4594:	4152      	adcs	r2, r2
    4596:	08c3      	lsrs	r3, r0, #3
    4598:	428b      	cmp	r3, r1
    459a:	d301      	bcc.n	45a0 <__divsi3+0x184>
    459c:	00cb      	lsls	r3, r1, #3
    459e:	1ac0      	subs	r0, r0, r3
    45a0:	4152      	adcs	r2, r2
    45a2:	0883      	lsrs	r3, r0, #2
    45a4:	428b      	cmp	r3, r1
    45a6:	d301      	bcc.n	45ac <__divsi3+0x190>
    45a8:	008b      	lsls	r3, r1, #2
    45aa:	1ac0      	subs	r0, r0, r3
    45ac:	4152      	adcs	r2, r2
    45ae:	d2d9      	bcs.n	4564 <__divsi3+0x148>
    45b0:	0843      	lsrs	r3, r0, #1
    45b2:	428b      	cmp	r3, r1
    45b4:	d301      	bcc.n	45ba <__divsi3+0x19e>
    45b6:	004b      	lsls	r3, r1, #1
    45b8:	1ac0      	subs	r0, r0, r3
    45ba:	4152      	adcs	r2, r2
    45bc:	1a41      	subs	r1, r0, r1
    45be:	d200      	bcs.n	45c2 <__divsi3+0x1a6>
    45c0:	4601      	mov	r1, r0
    45c2:	4663      	mov	r3, ip
    45c4:	4152      	adcs	r2, r2
    45c6:	105b      	asrs	r3, r3, #1
    45c8:	4610      	mov	r0, r2
    45ca:	d301      	bcc.n	45d0 <__divsi3+0x1b4>
    45cc:	4240      	negs	r0, r0
    45ce:	2b00      	cmp	r3, #0
    45d0:	d500      	bpl.n	45d4 <__divsi3+0x1b8>
    45d2:	4249      	negs	r1, r1
    45d4:	4770      	bx	lr
    45d6:	4663      	mov	r3, ip
    45d8:	105b      	asrs	r3, r3, #1
    45da:	d300      	bcc.n	45de <__divsi3+0x1c2>
    45dc:	4240      	negs	r0, r0
    45de:	b501      	push	{r0, lr}
    45e0:	2000      	movs	r0, #0
    45e2:	f000 f805 	bl	45f0 <__aeabi_idiv0>
    45e6:	bd02      	pop	{r1, pc}

000045e8 <__aeabi_idivmod>:
    45e8:	2900      	cmp	r1, #0
    45ea:	d0f8      	beq.n	45de <__divsi3+0x1c2>
    45ec:	e716      	b.n	441c <__divsi3>
    45ee:	4770      	bx	lr

000045f0 <__aeabi_idiv0>:
    45f0:	4770      	bx	lr
    45f2:	46c0      	nop			; (mov r8, r8)

000045f4 <__aeabi_llsl>:
    45f4:	4091      	lsls	r1, r2
    45f6:	1c03      	adds	r3, r0, #0
    45f8:	4090      	lsls	r0, r2
    45fa:	469c      	mov	ip, r3
    45fc:	3a20      	subs	r2, #32
    45fe:	4093      	lsls	r3, r2
    4600:	4319      	orrs	r1, r3
    4602:	4252      	negs	r2, r2
    4604:	4663      	mov	r3, ip
    4606:	40d3      	lsrs	r3, r2
    4608:	4319      	orrs	r1, r3
    460a:	4770      	bx	lr

0000460c <__ctzsi2>:
    460c:	4241      	negs	r1, r0
    460e:	4008      	ands	r0, r1
    4610:	211c      	movs	r1, #28
    4612:	2301      	movs	r3, #1
    4614:	041b      	lsls	r3, r3, #16
    4616:	4298      	cmp	r0, r3
    4618:	d301      	bcc.n	461e <__ctzsi2+0x12>
    461a:	0c00      	lsrs	r0, r0, #16
    461c:	3910      	subs	r1, #16
    461e:	0a1b      	lsrs	r3, r3, #8
    4620:	4298      	cmp	r0, r3
    4622:	d301      	bcc.n	4628 <__ctzsi2+0x1c>
    4624:	0a00      	lsrs	r0, r0, #8
    4626:	3908      	subs	r1, #8
    4628:	091b      	lsrs	r3, r3, #4
    462a:	4298      	cmp	r0, r3
    462c:	d301      	bcc.n	4632 <__ctzsi2+0x26>
    462e:	0900      	lsrs	r0, r0, #4
    4630:	3904      	subs	r1, #4
    4632:	a202      	add	r2, pc, #8	; (adr r2, 463c <__ctzsi2+0x30>)
    4634:	5c10      	ldrb	r0, [r2, r0]
    4636:	1a40      	subs	r0, r0, r1
    4638:	4770      	bx	lr
    463a:	46c0      	nop			; (mov r8, r8)
    463c:	1d1d1c1b 	.word	0x1d1d1c1b
    4640:	1e1e1e1e 	.word	0x1e1e1e1e
    4644:	1f1f1f1f 	.word	0x1f1f1f1f
    4648:	1f1f1f1f 	.word	0x1f1f1f1f

0000464c <__aeabi_lmul>:
    464c:	b5f0      	push	{r4, r5, r6, r7, lr}
    464e:	46ce      	mov	lr, r9
    4650:	4647      	mov	r7, r8
    4652:	0415      	lsls	r5, r2, #16
    4654:	0c2d      	lsrs	r5, r5, #16
    4656:	002e      	movs	r6, r5
    4658:	b580      	push	{r7, lr}
    465a:	0407      	lsls	r7, r0, #16
    465c:	0c14      	lsrs	r4, r2, #16
    465e:	0c3f      	lsrs	r7, r7, #16
    4660:	4699      	mov	r9, r3
    4662:	0c03      	lsrs	r3, r0, #16
    4664:	437e      	muls	r6, r7
    4666:	435d      	muls	r5, r3
    4668:	4367      	muls	r7, r4
    466a:	4363      	muls	r3, r4
    466c:	197f      	adds	r7, r7, r5
    466e:	0c34      	lsrs	r4, r6, #16
    4670:	19e4      	adds	r4, r4, r7
    4672:	469c      	mov	ip, r3
    4674:	42a5      	cmp	r5, r4
    4676:	d903      	bls.n	4680 <__aeabi_lmul+0x34>
    4678:	2380      	movs	r3, #128	; 0x80
    467a:	025b      	lsls	r3, r3, #9
    467c:	4698      	mov	r8, r3
    467e:	44c4      	add	ip, r8
    4680:	464b      	mov	r3, r9
    4682:	4351      	muls	r1, r2
    4684:	4343      	muls	r3, r0
    4686:	0436      	lsls	r6, r6, #16
    4688:	0c36      	lsrs	r6, r6, #16
    468a:	0c25      	lsrs	r5, r4, #16
    468c:	0424      	lsls	r4, r4, #16
    468e:	4465      	add	r5, ip
    4690:	19a4      	adds	r4, r4, r6
    4692:	1859      	adds	r1, r3, r1
    4694:	1949      	adds	r1, r1, r5
    4696:	0020      	movs	r0, r4
    4698:	bc0c      	pop	{r2, r3}
    469a:	4690      	mov	r8, r2
    469c:	4699      	mov	r9, r3
    469e:	bdf0      	pop	{r4, r5, r6, r7, pc}

000046a0 <__libc_init_array>:
    46a0:	b570      	push	{r4, r5, r6, lr}
    46a2:	2600      	movs	r6, #0
    46a4:	4d0c      	ldr	r5, [pc, #48]	; (46d8 <__libc_init_array+0x38>)
    46a6:	4c0d      	ldr	r4, [pc, #52]	; (46dc <__libc_init_array+0x3c>)
    46a8:	1b64      	subs	r4, r4, r5
    46aa:	10a4      	asrs	r4, r4, #2
    46ac:	42a6      	cmp	r6, r4
    46ae:	d109      	bne.n	46c4 <__libc_init_array+0x24>
    46b0:	2600      	movs	r6, #0
    46b2:	f000 f86f 	bl	4794 <_init>
    46b6:	4d0a      	ldr	r5, [pc, #40]	; (46e0 <__libc_init_array+0x40>)
    46b8:	4c0a      	ldr	r4, [pc, #40]	; (46e4 <__libc_init_array+0x44>)
    46ba:	1b64      	subs	r4, r4, r5
    46bc:	10a4      	asrs	r4, r4, #2
    46be:	42a6      	cmp	r6, r4
    46c0:	d105      	bne.n	46ce <__libc_init_array+0x2e>
    46c2:	bd70      	pop	{r4, r5, r6, pc}
    46c4:	00b3      	lsls	r3, r6, #2
    46c6:	58eb      	ldr	r3, [r5, r3]
    46c8:	4798      	blx	r3
    46ca:	3601      	adds	r6, #1
    46cc:	e7ee      	b.n	46ac <__libc_init_array+0xc>
    46ce:	00b3      	lsls	r3, r6, #2
    46d0:	58eb      	ldr	r3, [r5, r3]
    46d2:	4798      	blx	r3
    46d4:	3601      	adds	r6, #1
    46d6:	e7f2      	b.n	46be <__libc_init_array+0x1e>
    46d8:	000047a0 	.word	0x000047a0
    46dc:	000047a0 	.word	0x000047a0
    46e0:	000047a0 	.word	0x000047a0
    46e4:	000047a4 	.word	0x000047a4

000046e8 <memcpy>:
    46e8:	2300      	movs	r3, #0
    46ea:	b510      	push	{r4, lr}
    46ec:	429a      	cmp	r2, r3
    46ee:	d100      	bne.n	46f2 <memcpy+0xa>
    46f0:	bd10      	pop	{r4, pc}
    46f2:	5ccc      	ldrb	r4, [r1, r3]
    46f4:	54c4      	strb	r4, [r0, r3]
    46f6:	3301      	adds	r3, #1
    46f8:	e7f8      	b.n	46ec <memcpy+0x4>

000046fa <memset>:
    46fa:	0003      	movs	r3, r0
    46fc:	1882      	adds	r2, r0, r2
    46fe:	4293      	cmp	r3, r2
    4700:	d100      	bne.n	4704 <memset+0xa>
    4702:	4770      	bx	lr
    4704:	7019      	strb	r1, [r3, #0]
    4706:	3301      	adds	r3, #1
    4708:	e7f9      	b.n	46fe <memset+0x4>
    470a:	0000      	movs	r0, r0
    470c:	42000000 	.word	0x42000000
    4710:	42000400 	.word	0x42000400
    4714:	42000800 	.word	0x42000800
    4718:	42000c00 	.word	0x42000c00
    471c:	42001000 	.word	0x42001000
    4720:	43000400 	.word	0x43000400

00004724 <_usb_device_irq_bits>:
    4724:	00080004 00800070 01000001 0c030200              ....p.........

00004732 <_usb_endpoint_irq_bits>:
    4732:	60100c03                                ...`

00004736 <RomBOOT_Version>:
    4736:	36312e32 000d0a00 00200076 20626546     2.16....v. .Feb 
    4746:	32203720 00313230 303a3731 38343a35      7 2021.17:05:48
    4756:	00003e00 3f4d0000                                .>....

0000475c <uart_if>:
    475c:	00003f4d 00003f75 00003f65 00003fc1     M?..u?..e?...?..
    476c:	00003fe1 00004109 00004219              .?...A...B..

00004778 <usbcdc_if>:
    4778:	00000881 00000631 00000591 0000092d     ....1.......-...
    4788:	0000076d 0000092d 00000781              m...-.......

00004794 <_init>:
    4794:	b5f8      	push	{r3, r4, r5, r6, r7, lr}
    4796:	46c0      	nop			; (mov r8, r8)
    4798:	bcf8      	pop	{r3, r4, r5, r6, r7}
    479a:	bc08      	pop	{r3}
    479c:	469e      	mov	lr, r3
    479e:	4770      	bx	lr

000047a0 <__init_array_start>:
    47a0:	000000dd 	.word	0x000000dd

000047a4 <_fini>:
    47a4:	b5f8      	push	{r3, r4, r5, r6, r7, lr}
    47a6:	46c0      	nop			; (mov r8, r8)
    47a8:	bcf8      	pop	{r3, r4, r5, r6, r7}
    47aa:	bc08      	pop	{r3}
    47ac:	469e      	mov	lr, r3
    47ae:	4770      	bx	lr

000047b0 <__fini_array_start>:
    47b0:	000000b5 	.word	0x000000b5
